(lp0
Vcompliance
p1
aVclassroom
p2
aVcontrolling
p3
aVmoms
p4
aVsuccessful
p5
aVrosiewearamask
p6
aVmaskless
p7
aVexpensive
p8
aVcapita
p9
aVoversight
p10
aVclasses
p11
aVsuppression
p12
aVtraffic
p13
aVwaiver
p14
aVgrants
p15
aVviolent
p16
aVcold
p17
aVfloridas
p18
aVhouston
p19
aVstrategic
p20
aVdanielandrewsmp
p21
aVmismanagement
p22
aVliberty
p23
aVmarcorubio
p24
aVdevastated
p25
aVschools
p26
aVexact
p27
aVindiafightscorona
p28
aVshared
p29
aVestablished
p30
aVreply
p31
aVsurgery
p32
aVkidding
p33
aVshift
p34
aV\U0001f62d
p35
aVtedcruz
p36
aVelection
p37
aVgrandparents
p38
aVparents
p39
aVmilestone
p40
aVimproving
p41
aVapplied
p42
aVexist
p43
aVshields
p44
aVmom
p45
aVpassed
p46
aVloser
p47
aVidiots
p48
aVdebates
p49
aVbuddy
p50
aVvaccine
p51
aVass
p52
aVwishes
p53
aVcamp
p54
aVobesity
p55
aV5
p56
aVforget
p57
aVracial
p58
aVmmpadellan
p59
aVcounted
p60
aVlaugh
p61
aVhurting
p62
aVlove
p63
aVjohncornyn
p64
aVke
p65
aVmurder
p66
aVgop
p67
aV68
p68
aVportland
p69
aVdementia
p70
aVmid
p71
aV35
p72
aVburning
p73
aVfavor
p74
aVtransformation
p75
aVstarting
p76
aVselfisolate
p77
aVcandidates
p78
aVsuffer
p79
aVxi
p80
aVprojectlincoln
p81
aVtone
p82
aVbrutal
p83
aVcut
p84
aVjuly
p85
aVovernight
p86
aVlisted
p87
aVlikes
p88
aVappointment
p89
aVincludes
p90
aVbrings
p91
aVcoronavirusoutbreak
p92
aVsingapore
p93
aVhalloween
p94
aVandrew
p95
aVphd
p96
aVwonderful
p97
aVaccident
p98
aVhidden
p99
aVfutures
p100
a.