(lp0
Vcovid19
p1
aVcases
p2
aVnew
p3
aVcoronavirus
p4
aVamp
p5
aVpeople
p6
aVcovid-19
p7
aVpandemic
p8
aVdeaths
p9
aVhealth
p10
aVone
p11
aVpositive
p12
aVget
p13
aVcovid
p14
aVtotal
p15
aVtoday
p16
aVlike
p17
aVneed
p18
aVhelp
p19
aVindia
p20
aVmask
p21
aVrealdonaldtrump
p22
aVlast
p23
aVtime
p24
aVday
p25
aVvaccine
p26
aVtrump
p27
aVmany
p28
aVnews
p29
aV2020
p30
aVworld
p31
aVknow
p32
aVfirst
p33
aVdue
p34
aVreported
p35
aVaugust
p36
aVmasks
p37
aVspread
p38
aVeven
p39
aVstill
p40
aVvirus
p41
aVtesting
p42
aVnumber
p43
aVback
p44
aVtested
p45
aVupdate
p46
aVdeath
p47
aVlockdown
p48
aVgood
p49
aVtake
p50
aVwork
p51
aVsee
p52
aVgoing
p53
aVwould
p54
aVstate
p55
aVhome
p56
aVplease
p57
aVvia
p58
aVglobal
p59
aVdaily
p60
aVsays
p61
aVtest
p62
aVgovernment
p63
aVtests
p64
aVcould
p65
aVread
p66
aVcountry
p67
aVmake
p68
aVmay
p69
aVschool
p70
aVsafe
p71
aVconfirmed
p72
aVpublic
p73
aVdays
p74
aVit\u2019s
p75
aVcare
p76
aVsince
p77
aVpatients
p78
aVrisk
p79
aVlatest
p80
aVface
p81
aVdata
p82
aVthink
p83
aVwant
p84
aVkeep
p85
aVwear
p86
aVcase
p87
aVcorona
p88
aVreports
p89
aVjuly
p90
aVway
p91
aVevery
p92
aVsupport
p93
aVmillion
p94
aVsocial
p95
aVschools
p96
aVdied
p97
aVchildren
p98
aVgreat
p99
aVsaid
p100
aVright
p101
aVyear
p102
aVweek
p103
aVamericans
p104
aValso
p105
aVmust
p106
aVbusiness
p107
aVhospital
p108
aVstay
p109
aVwell
p110
aVrate
p111
aVhours
p112
aVlive
p113
aVsay
p114
aVresponse
p115
aVcrisis
p116
aVmuch
p117
aVaround
p118
aVstop
p119
aVanother
p120
aVlife
p121
aVkids
p122
aVactive
p123
aVstudents
p124
aVlook
p125
aVreally
p126
aVwearing
p127
aVdon\u2019t
p128
aVtwo
p129
aVeveryone
p130
aVimpact
p131
aVfight
p132
aVuse
p133
aVrecovered
p134
aVfree
p135
aVwatch
p136
aVgot
p137
aVcommunity
p138
aVstates
p139
aVsymptoms
p140
aVreport
p141
aVworkers
p142
aVtimes
p143
aVfamily
p144
aVpart
p145
aVmonths
p146
aVimportant
p147
aVtally
p148
aVtaking
p149
aVcheck
p150
aVworking
p151
aVpresident
p152
aVi'm
p153
aVgetting
p154
aVbest
p155
aVrecovery
p156
aVmade
p157
aVnext
p158
aVchina
p159
aVmedical
p160
aVlives
p161
aVspike
p162
aVminister
p163
aVonline
p164
aVnever
p165
aVcountries
p166
aVprotect
p167
aVjoin
p168
aVbetter
p169
aVquarantine
p170
aVvideo
p171
aVper
p172
aVhigh
p173
aVacross
p174
aVfind
p175
aVwithout
p176
aVmedia
p177
aVthanks
p178
aVeconomy
p179
aVthank
p180
aVopen
p181
aVnumbers
p182
aVcome
p183
aVneeds
p184
aVi\u2019m
p185
aVincluding
p186
aVhealthcare
p187
aVlocal
p188
aVlove
p189
aVlong
p190
aValert
p191
aVamid
p192
aVstudy
p193
aVplan
p194
aVperson
p195
aVcounty
p196
aVtop
p197
aVstart
p198
aVnational
p199
aVusa
p200
aVtoll
p201
aVgive
p202
aVcan't
p203
aVresearch
p204
aVyet
p205
aVhope
p206
aVfood
p207
aVfollow
p208
aVstaff
p209
aVreal
p210
aVlet
p211
aVtravel
p212
aVthings
p213
aVdone
p214
aVanyone
p215
aVsouth
p216
aVsure
p217
aVbig
p218
aVcontinue
p219
aVamerica
p220
aVsituation
p221
aVsafety
p222
aVbreaking
p223
aVput
p224
aVyears
p225
aVpost
p226
aVlost
p227
aVupdates
p228
aVfull
p229
aVeconomic
p230
aVlearn
p231
aVcall
p232
aVsign
p233
aVdie
p234
aVfar
p235
aVaway
p236
aVweeks
p237
aVshare
p238
aVlooking
p239
aVrussia
p240
aVbusinesses
p241
aVever
p242
aVmorning
p243
aVaug
p244
aVend
p245
aVdistancing
p246
aVchange
p247
aValready
p248
aVu.s
p249
aVeducation
p250
aVman
p251
aVteam
p252
aVoutbreak
p253
aVarticle
p254
aVjob
p255
aVusing
p256
aVshow
p257
aVyesterday
p258
aVhighest
p259
aVyoung
p260
aVinfections
p261
aVtell
p262
aVblood
p263
aVcoronaviruspandemic
p264
aVrise
p265
aVinfected
p266
aVthing
p267
aVslow
p268
aVmaking
p269
aVcontact
p270
aVdead
p271
aVmeasures
p272
aVsomeone
p273
aVcity
p274
aVfuture
p275
aVgovt
p276
aV100
p277
aVremember
p278
aVodisha
p279
aVgop
p280
aVwe're
p281
aVamerican
p282
aVcoming
p283
aVused
p284
aVcontrol
p285
aVfeel
p286
aVothers
p287
aVavailable
p288
aVtogether
p289
aVpolice
p290
aVplasma
p291
aVcovid_19
p292
aVinfection
p293
aVthree
p294
aVinformation
p295
aVhard
p296
aVhit
p297
aVflorida
p298
aVsecond
p299
aVdoctors
p300
aVplace
p301
aVrecoveries
p302
aVofficials
p303
aVhappy
p304
aVwomen
p305
aVincrease
p306
aVresults
p307
aVmoney
p308
aVwearamask
p309
aVafrica
p310
aVpay
p311
aValways
p312
aVshows
p313
aVbelieve
p314
aVenough
p315
aVlot
p316
aVrecord
p317
aVgmt
p318
aVcoronavirusupdate
p319
aVwebinar
p320
aVkey
p321
aVdisease
p322
aVtreatment
p323
aVearly
p324
aVsystem
p325
aVfound
p326
aVfamilies
p327
aVrelief
p328
aVamong
p329
aVless
p330
aVclose
p331
aVhospitals
p332
aVannounced
p333
aVpast
p334
aVable
p335
aVcan\u2019t
p336
aVleast
p337
aVindustry
p338
aVworldwide
p339
aVidentify
p340
aVmight
p341
aVflu
p342
aVdistrict
p343
aVrestrictions
p344
aVnegative
p345
aVcurrent
p346
aVtrying
p347
aVbecome
p348
aVchief
p349
aVold
p350
aVsomething
p351
aVexperts
p352
aVnormal
p353
aVdespite
p354
aVclosed
p355
aVbad
p356
aVcanada
p357
aVapp
p358
aVrecorded
p359
aVmembers
p360
aVsaturday
p361
aVreturn
p362
aVfriends
p363
aVservices
p364
aVaccording
p365
aVcdc
p366
aVhands
p367
aVthought
p368
aVseen
p369
aVunderstand
p370
aVorder
p371
aVparents
p372
aVleaders
p373
aVespecially
p374
aVsmall
p375
aVdifferent
p376
aVlikely
p377
aVlittle
p378
aVyoutube
p379
aVset
p380
aVsave
p381
aVscience
p382
aVyes
p383
aVeverything
p384
aVstory
p385
aVsoon
p386
aVvaccines
p387
aVfollowing
p388
aVjobs
p389
aVoffice
p390
aVlet's
p391
aVgets
p392
aVmark
p393
aVsooner
p394
aVhuman
p395
aVaffected
p396
aVlakh
p397
aVsamples
p398
aVsingle
p399
aVthat's
p400
aValmost
p401
aVtexas
p402
aVupdated
p403
aVthread
p404
aVprovide
p405
aVhey
p406
aVnothing
p407
aVemergency
p408
aVaustralia
p409
aVinternational
p410
aVtalk
p411
aVlearning
p412
aVchallenges
p413
aVhear
p414
aVsick
p415
aVhouse
p416
aVaccess
p417
aVgod
p418
aVsingle-day
p419
aVunited
p420
aVsaying
p421
aVsunday
p422
aVhere's
p423
aVprevent
p424
aVeffective
p425
aVvirtual
p426
aVteachers
p427
aVcontinues
p428
aVtaken
p429
aVcompanies
p430
aVfriday
p431
aVliving
p432
aVcongress
p433
aVlisten
p434
aVrecent
p435
aVdying
p436
aVmonth
p437
aVwhole
p438
aVlevel
p439
aVinteresting
p440
aVseason
p441
aVways
p442
aVservice
p443
aVemployees
p444
aVvisit
p445
aVrelated
p446
aVthousands
p447
aVmakes
p448
aVtransmission
p449
aVguidelines
p450
aVnearly
p451
aVreopening
p452
aVfear
p453
aVplay
p454
aVself-reporting
p455
aVgiven
p456
aVpopulation
p457
aVlink
p458
aVhealthy
p459
aVpotus
p460
aVready
p461
aVworst
p462
aVleft
p463
aVweekend
p464
aVindia's
p465
aVconducted
p466
aVmarket
p467
aVtomorrow
p468
aVlooks
p469
aVwe\u2019re
p470
aVactually
p471
aVensure
p472
aVfauci
p473
aVrecords
p474
aVgroup
p475
aVmarch
p476
aVhelping
p477
aVpoint
p478
aVdiscuss
p479
aVtwitter
p480
aVfour
p481
aVtill
p482
aVreporting
p483
aVcommunities
p484
aVair
p485
aVtoday's
p486
aVhand
p487
aVbringing
p488
aVdigital
p489
aVago
p490
aVlow
p491
aVwave
p492
aVhydroxychloroquine
p493
aVi\u2019ll
p494
aVresult
p495
aVrapid
p496
aVseems
p497
aVincreased
p498
aVcritical
p499
aVpatient
p500
aVyou\u2019re
p501
aVtrue
p502
aVfighting
p503
aVrises
p504
aVbill
p505
aVlist
p506
aVrole
p507
aVministry
p508
aVborisjohnson
p509
aVsummer
p510
aVblog
p511
aVtype
p512
aVcause
p513
aVparty
p514
aVfinancial
p515
aVask
p516
aVvote
p517
aVfall
p518
aVmean
p519
aVforget
p520
aVfact
p521
aVmajor
p522
aVcomes
p523
aVfederal
p524
aVtook
p525
aVtold
p526
aVzealand
p527
aVmaybe
p528
aVevidence
p529
aVaction
p530
aVstarted
p531
aVdeliver
p532
aVwants
p533
aVfresh
p534
aVsurvey
p535
aVcollege
p536
aVuniversity
p537
aVpossible
p538
aVpower
p539
aVclinical
p540
aVcure
p541
aVadvice
p542
aVblack
p543
aVact
p544
aVones
p545
aVcitizens
p546
aVpolitical
p547
aVleadership
p548
aVcnn
p549
aVscientists
p550
aVneeded
p551
aVessential
p552
aVmonday
p553
aVquestion
p554
aVdoctor
p555
aVspreading
p556
aVjoebiden
p557
aVcalled
p558
aVissues
p559
aVmeans
p560
aVwent
p561
aVcalifornia
p562
aVbiggest
p563
aVmillions
p564
aVtechnology
p565
aVtrust
p566
aVtry
p567
aVcompany
p568
aVdeveloped
p569
aVsocialdistancing
p570
aVhigher
p571
aVtruth
p572
aVanything
p573
aVpolicy
p574
aVthere's
p575
aVtalking
p576
aVdelhi
p577
aVgrowth
p578
aVresidents
p579
aVofficial
p580
aVrules
p581
aVreopen
p582
aVwhite
p583
aVchild
p584
aVcannot
p585
aVissue
p586
aVnovel
p587
aVfocus
p588
aVdetails
p589
aVfinally
p590
aVsaw
p591
aVexperience
p592
aVbring
p593
aVplans
p594
aVseries
p595
aVproblem
p596
aVage
p597
aVmental
p598
aVdeal
p599
aVhead
p600
aVnight
p601
aVphase
p602
aVwait
p603
aVcount
p604
aVcrosses
p605
aVsend
p606
aVtrials
p607
aVspecial
p608
aVpoor
p609
aVchinese
p610
aVheart
p611
aVelection
p612
aVline
p613
aV1st
p614
aVmeet
p615
aVwrong
p616
aVcampaign
p617
aVbased
p618
aVkilled
p619
aVreason
p620
aVelse
p621
aVclasses
p622
aVputin
p623
aVcoronainfoch
p624
aVwithin
p625
aValong
p626
aVsecurity
p627
aVkeeping
p628
aVavoid
p629
aVshut
p630
aVgone
p631
aVcurrently
p632
aVsad
p633
aVlead
p634
aVopportunity
p635
aVrest
p636
aVgame
p637
aVunemployment
p638
aVthat\u2019s
p639
aVyouth
p640
aVcaused
p641
aVimmunity
p642
aVdemand
p643
aVhuge
p644
aVdevelopment
p645
aVtips
p646
aVwater
p647
aVefforts
p648
aVahead
p649
aVoutside
p650
aVmeeting
p651
aVloved
p652
aVcoronavirusupdates
p653
aVchallenge
p654
aVserious
p655
aVquestions
p656
aVinstead
p657
aVlet\u2019s
p658
aVseeing
p659
aVfive
p660
aVreach
p661
aVcentre
p662
aVdear
p663
aVstatus
p664
aVincreasing
p665
aVwonder
p666
aVlack
p667
aVchanges
p668
aVleader
p669
aVcreated
p670
aVmiss
p671
aVcovidiots
p672
aVbehind
p673
aVrates
p674
aVdoesn\u2019t
p675
aVaverage
p676
aVstand
p677
aVbrazil
p678
aVcopy
p679
aVdeadly
p680
aVchanged
p681
aVindian
p682
aVeffects
p683
aVfootball
p684
aVi've
p685
aVvictoria
p686
aVfriend
p687
aVwoman
p688
aVsource
p689
aVfire
p690
aVhotel
p691
aVnarendramodi
p692
aVproud
p693
aVmind
p694
aVprivate
p695
aVrun
p696
aVimmune
p697
aVengland
p698
aVdistance
p699
aVmanagement
p700
aVreduce
p701
aVwe've
p702
aVhalf
p703
aVresources
p704
aVclear
p705
aVdepartment
p706
aVthinking
p707
aVpotential
p708
aVpradesh
p709
aVhappening
p710
aVcreate
p711
aVnhs
p712
aVtrump's
p713
aVremote
p714
aVcourse
p715
aVbiden
p716
aVgovernor
p717
aVworse
p718
aVgoes
p719
aVstaysafe
p720
aVcovid\u30fc19
p721
aVppe
p722
aVtelangana
p723
aVisolation
p724
aVsports
p725
aVmass
p726
aVpass
p727
aVcame
p728
aVasking
p729
aVamazing
p730
aVprogram
p731
aVexpert
p732
aVwash
p733
aVwish
p734
aVkarnataka
p735
aVforced
p736
aVmatter
p737
aVloss
p738
aVresearchers
p739
aVwhat's
p740
aVspain
p741
aVrising
p742
aVshowing
p743
aVcomponent
p744
aVdirector
p745
aVhomes
p746
aVpodcast
p747
aVgov
p748
aVsurge
p749
aVbrother
p750
aVvulnerable
p751
aVgeneral
p752
aVleave
p753
aVmove
p754
aVkill
p755
aVnation
p756
aVbody
p757
aVstarting
p758
aVsector
p759
aVhold
p760
aVnigeria
p761
aVrunning
p762
aVcommon
p763
aVnorth
p764
aVpakistan
p765
aVremain
p766
aVstrong
p767
aVeasy
p768
aVproject
p769
aVwhether
p770
aVformer
p771
aVsimple
p772
aVgiving
p773
aVrecently
p774
aVwatching
p775
aVwaiting
p776
aVisn\u2019t
p777
aVasked
p778
aVmaharashtra
p779
aVmember
p780
aVcomplete
p781
aVopening
p782
aVi\u2019ve
p783
aVrecover
p784
aVkind
p785
aVsuffering
p786
aVinfo
p787
aVallowed
p788
aVfacing
p789
aVdecision
p790
aVtakes
p791
aVevent
p792
aVhoax
p793
aVidea
p794
aVsharing
p795
aVguys
p796
aVsir
p797
aVdidn\u2019t
p798
aVhistory
p799
aVforward
p800
aVcover
p801
aVrussian
p802
aVsix
p803
aVarea
p804
aVtweet
p805
aVheard
p806
aVfeeling
p807
aVdate
p808
aVdischarged
p809
aVseriously
p810
aVclaims
p811
aVtech
p812
aVstupid
p813
aVtracing
p814
aVimpacted
p815
aVplaying
p816
aVdifficult
p817
aVcustomers
p818
aVadministration
p819
aVworth
p820
aVreminder
p821
aVceo
p822
aVsense
p823
aVcost
p824
aVepisode
p825
aVeurope
p826
aVleading
p827
aVgeorgia
p828
aVstrategy
p829
aVfunding
p830
aVmessage
p831
aVstudent
p832
aVbook
p833
aVmusic
p834
aVtrial
p835
aVinsurance
p836
aVphysical
p837
aVamount
p838
aVppl
p839
aVagree
p840
aVfacebook
p841
aVfacemask
p842
aVpassed
p843
aVmlb
p844
aVpiece
p845
aVdrug
p846
aVcancer
p847
aVbuy
p848
aVwebsite
p849
aVcalls
p850
aVwhitehouse
p851
aVfront
p852
aVthough
p853
aVbillion
p854
aVireland
p855
aVcenter
p856
aVyork
p857
aVbreak
p858
aVhappen
p859
aVwow
p860
aVregistered
p861
aVtonight
p862
aVnursing
p863
aVwilling
p864
aVwar
p865
aVprobably
p866
aVclass
p867
aVguidance
p868
aVlarge
p869
aVview
p870
aVwake
p871
aVthey're
p872
aVinterview
p873
aVattention
p874
aVkilling
p875
aVdemocrats
p876
aV2nd
p877
aVtraining
p878
aVshares
p879
aVplanning
p880
aVrajasthan
p881
aVreview
p882
aVseptember
p883
aVuae
p884
aVregarding
p885
aVoffer
p886
aVhandling
p887
aVtreat
p888
aVmandatory
p889
aVpage
p890
aVprotest
p891
aVprotests
p892
aVaddress
p893
aVallow
p894
aVtuesday
p895
aVadditional
p896
aVcities
p897
aVdangerous
p898
aVfailed
p899
aVhere\u2019s
p900
aVareas
p901
aVlight
p902
aVreleased
p903
aVfacilities
p904
aVrepublicans
p905
aVsupply
p906
aVreality
p907
aVshit
p908
aVpractice
p909
aVblame
p910
aVfuck
p911
aVcalling
p912
aVled
p913
aVbrought
p914
aVpaper
p915
aVtrumpvirus
p916
aVunion
p917
aVconcerns
p918
aVbuilding
p919
aVdies
p920
aVresponsible
p921
aVpersonal
p922
aVdaughter
p923
aVpress
p924
aVthursday
p925
aVentire
p926
aVcross
p927
aVdownload
p928
aVimagine
p929
aVexcellent
p930
aVwon\u2019t
p931
aVnice
p932
aVwin
p933
aVanswer
p934
aVlaw
p935
aVsevere
p936
aVmassive
p937
aVtrack
p938
aVworks
p939
aVpolitics
p940
aVplayers
p941
aVstep
p942
aVconsider
p943
aVhe's
p944
aVnurses
p945
aVplaces
p946
aVseveral
p947
aVguy
p948
aVkorea
p949
aVlonger
p950
aVimpacts
p951
aVfake
p952
aVforce
p953
aValone
p954
aVborder
p955
aVsociety
p956
aVputting
p957
aVimportance
p958
aVretweet
p959
aVheld
p960
aVsupporting
p961
aVdonald
p962
aVinclude
p963
aVlate
p964
aVgermany
p965
aVauthorities
p966
aVgovernments
p967
aVbattle
p968
aVshort
p969
aVclick
p970
aVclean
p971
aVthere\u2019s
p972
aVnature
p973
aVconference
p974
aVstress
p975
aVsending
p976
aVfacemasks
p977
aVred
p978
aVcatch
p979
aVprotection
p980
aVsystems
p981
aVfrance
p982
aVicymi
p983
aVstatistics
p984
aVguess
p985
aVfailure
p986
aVlies
p987
aVtalks
p988
aVzero
p989
aVchance
p990
aVthailand
p991
aVthird
p992
aVchurch
p993
aVrights
p994
aVannounces
p995
aVeffect
p996
aVside
p997
aVstruggling
p998
aVfrontline
p999
aVfun
p1000
a.