(lp0
Vcoronavirus
p1
aVcovid19
p2
aVcovid
p3
aVpeople
p4
aVtrump
p5
aVpandemic
p6
aVdont
p7
aVdeaths
p8
aVvirus
p9
aVhealth
p10
aVtime
p11
aVim
p12
aVrealdonaldtrump
p13
aVnews
p14
aV19
p15
aVdue
p16
aVpositive
p17
aVlockdown
p18
aVworld
p19
aVchina
p20
aVhome
p21
aVdeath
p22
aVday
p23
aVspread
p24
aVtest
p25
aVgovernment
p26
aVtesting
p27
aV2
p28
aVcare
p29
aVwuhan
p30
aVpatients
p31
aVcrisis
p32
aVresponse
p33
aVtested
p34
aVcountry
p35
aVoutbreak
p36
aVpresident
p37
aVdays
p38
aVstay
p39
aVvaccine
p40
aVpublic
p41
aVdied
p42
aVstop
p43
aVmasks
p44
aVmask
p45
aV1
p46
aVlive
p47
aVflu
p48
aV2020
p49
aVread
p50
aVuk
p51
aVsupport
p52
aVamericans
p53
aVsocial
p54
aVweek
p55
aVhospital
p56
aVtests
p57
aVdoesnt
p58
aV3
p59
aVrisk
p60
aVyoure
p61
aVlife
p62
aVtimes
p63
aVsafe
p64
aVdidnt
p65
aVdie
p66
aVweeks
p67
aVworkers
p68
aVquarantine
p69
aVmillion
p70
aVfight
p71
aVtrumps
p72
aVbusiness
p73
aVeconomy
p74
aVschool
p75
aVmonths
p76
aVtotal
p77
aVlives
p78
aVfamily
p79
aVdata
p80
aVhope
p81
aVhouse
p82
aVfree
p83
aVmedical
p84
aVhes
p85
aVglobal
p86
aVamid
p87
aVconfirmed
p88
aVrate
p89
aVisnt
p90
aVmoney
p91
aVupdate
p92
aVmedia
p93
aVreal
p94
aVsymptoms
p95
aVchinese
p96
aVwont
p97
aVinfected
p98
aV4
p99
aVdaily
p100
aVsick
p101
aVdr
p102
aVindia
p103
aVjob
p104
aVive
p105
aVbad
p106
aVamerica
p107
aVplan
p108
aVcounty
p109
aVimpact
p110
aVdisease
p111
aVcountries
p112
aVreport
p113
aVcall
p114
aVtaking
p115
aVstaff
p116
aVwatch
p117
aVcdc
p118
aVschools
p119
aVreported
p120
aVtravel
p121
aVstudents
p122
aVpost
p123
aV5
p124
aVwear
p125
aVperson
p126
aVcommunity
p127
aVprotect
p128
aVwhite
p129
aVinformation
p130
aVstart
p131
aVcorona
p132
aVcity
p133
aVlot
p134
aVhospitals
p135
aVcheck
p136
aVmarch
p137
aVchildren
p138
aVdoctors
p139
aVkids
p140
aVdead
p141
aV10
p142
aVcoming
p143
aVdistancing
p144
aVfood
p145
aVfeel
p146
aVrelief
p147
aVnational
p148
aVtheyre
p149
aVlost
p150
aVbusinesses
p151
aVreports
p152
aVlove
p153
aVcontrol
p154
aVamerican
p155
aVonline
p156
aVhit
p157
aVclose
p158
aVsituation
p159
aVlocal
p160
aVshit
p161
aVeconomic
p162
aVtop
p163
aVemergency
p164
aVupdates
p165
aVvideo
p166
aVbill
p167
aVyork
p168
aVtold
p169
aVstory
p170
aVchange
p171
aVpay
p172
aVheres
p173
aVhard
p174
aVdying
p175
aV6
p176
aVarticle
p177
aVill
p178
aVgovt
p179
aVteam
p180
aVgod
p181
aVrestrictions
p182
aVbiden
p183
aVmeasures
p184
aVhomes
p185
aVspreading
p186
aVtreatment
p187
aVsystem
p188
aVstudy
p189
aVpm
p190
aVcontinue
p191
aVtoll
p192
aVwearing
p193
aVworse
p194
aVvote
p195
aVsafety
p196
aVofficials
p197
aVmarket
p198
aVcontact
p199
aVinfection
p200
aVhealthcare
p201
aVapril
p202
aVclosed
p203
aVresearch
p204
aVbreaking
p205
aVcnn
p206
aVsouth
p207
aVmonth
p208
aVcalled
p209
aVago
p210
aVexperts
p211
aVhands
p212
aVitaly
p213
aVfear
p214
aVwrong
p215
aVwhats
p216
aVhours
p217
aVincluding
p218
aVnormal
p219
aVnursing
p220
aVlearn
p221
aVsave
p222
aVstarted
p223
aVfound
p224
aVmakes
p225
aVfollow
p226
aVfriends
p227
aVusa
p228
aVleft
p229
aVpolice
p230
aVkill
p231
aVpopulation
p232
aVgop
p233
aVunderstand
p234
aVarent
p235
aVwait
p236
aVflorida
p237
aVscience
p238
aVgonna
p239
aVhuman
p240
aVrecovery
p241
aVthousands
p242
aVhoax
p243
aVdoctor
p244
aVseason
p245
aVfamilies
p246
aVtalk
p247
aVremember
p248
aVtrue
p249
aVcurrent
p250
aVresults
p251
aVfuck
p252
aVdeal
p253
aVshut
p254
aVincrease
p255
aVcure
p256
aVnegative
p257
aVtalking
p258
aV100
p259
aVgov
p260
aVissues
p261
aVservice
p262
aVrelated
p263
aVnhs
p264
aVfuture
p265
aVdonald
p266
aVparty
p267
aVpatient
p268
aVbc
p269
aVinfections
p270
aV20
p271
aVsign
p272
aVjoin
p273
aVreason
p274
aVelection
p275
aVshare
p276
aVmeans
p277
aVpolitical
p278
aVfauci
p279
aVact
p280
aVunited
p281
aVvisit
p282
aVservices
p283
aVaffected
p284
aVprevent
p285
aVblack
p286
aVrules
p287
aVjobs
p288
aVrise
p289
aVfake
p290
aVkilled
p291
aVdemocrats
p292
aVset
p293
aVminister
p294
aVhear
p295
aVpast
p296
aV12
p297
aVgovernor
p298
aVoffice
p299
aVworst
p300
aVair
p301
aVfederal
p302
aVyall
p303
aVforce
p304
aVblame
p305
aVquestion
p306
aVleave
p307
aVadvice
p308
aVemployees
p309
aVfucking
p310
aV7
p311
aVbbc
p312
aVquestions
p313
aVleaders
p314
aVdrug
p315
aVmillions
p316
aVtwitter
p317
aVrecovered
p318
aVplay
p319
aVindustry
p320
aVlow
p321
aVissue
p322
aVyesterday
p323
aVlol
p324
aV15
p325
aVrest
p326
aVapp
p327
aVwar
p328
aVfighting
p329
aVwave
p330
aVadministration
p331
aVdeadly
p332
aVstupid
p333
aVweve
p334
aVhavent
p335
aVcompanies
p336
aVhand
p337
aVprovide
p338
aVlist
p339
aVcaused
p340
aVplans
p341
aVrecord
p342
aVreturn
p343
aVheart
p344
aVppl
p345
aVliving
p346
aVparents
p347
aVid
p348
aVmorning
p349
aVlink
p350
aV30
p351
aVaction
p352
aVmatter
p353
aVlies
p354
aVscientists
p355
aVcitizens
p356
aVwasnt
p357
aVhappy
p358
aVage
p359
aVfinancial
p360
aVdies
p361
aVannounced
p362
aVnation
p363
aVcovid\u30fc19
p364
aVready
p365
aVjoebiden
p366
aVlisten
p367
aVimmunity
p368
aVline
p369
aVconcerns
p370
aVsir
p371
aVreopen
p372
aV24
p373
aVguess
p374
aVevidence
p375
aV14
p376
aVresidents
p377
aVtruth
p378
aVpress
p379
aVtexas
p380
aVhealthy
p381
aVrun
p382
aVhappen
p383
aVleadership
p384
aVsense
p385
aVlab
p386
aVthinking
p387
aVwouldnt
p388
aVdangerous
p389
aVreopening
p390
aVgovernments
p391
aVyeah
p392
aVcampaign
p393
aVunemployment
p394
aVthreat
p395
aVnight
p396
aV8
p397
aVcanada
p398
aVguidelines
p399
aVgame
p400
aVjune
p401
aVhold
p402
aVidea
p403
aVcalling
p404
aVheard
p405
aVmove
p406
aVcompany
p407
aVcommon
p408
aVpotus
p409
aVhey
p410
aVhell
p411
aVaccess
p412
aVgiving
p413
aVevent
p414
aVinfo
p415
aVboris
p416
aVcatch
p417
aVhalf
p418
aVpolicy
p419
aVessential
p420
aVfall
p421
aVhappened
p422
aVresult
p423
aVfriday
p424
aVpanic
p425
aVavoid
p426
aVbring
p427
aVimmune
p428
aVjohnson
p429
aVvulnerable
p430
aVpoor
p431
aVjuly
p432
aVsingle
p433
aVhelping
p434
aVpower
p435
aVmajor
p436
aVofficial
p437
aVcalls
p438
aVeurope
p439
aVcalifornia
p440
aVresources
p441
aVhuge
p442
aVmental
p443
aVuniversity
p444
aVstimulus
p445
aVclaims
p446
aVcancelled
p447
aVallowed
p448
aVlack
p449
aVrates
p450
aVpretty
p451
aVkilling
p452
aVlevel
p453
aVliterally
p454
aVentire
p455
aVkey
p456
aVmonday
p457
aVhandling
p458
aVhead
p459
aVguys
p460
aVisolation
p461
aVreporting
p462
aVsend
p463
aVsad
p464
aVbased
p465
aVchance
p466
aVwomen
p467
aVhappening
p468
aV50
p469
aVfailed
p470
aVeducation
p471
aVwebsite
p472
aVdepartment
p473
aVguy
p474
aVfund
p475
aVlaw
p476
aVfriend
p477
aVppe
p478
aVagree
p479
aVfunding
p480
aVwaiting
p481
aVprivate
p482
aVtomorrow
p483
aVrunning
p484
aVhate
p485
aVtakes
p486
aVcancer
p487
aVmoment
p488
aVefforts
p489
aVdemand
p490
aVinternational
p491
aVhistory
p492
aVspike
p493
aVmind
p494
aVfinally
p495
aVcontinues
p496
aVtweet
p497
aVtax
p498
aVresponsible
p499
aVfears
p500
aVconditions
p501
aVlead
p502
aVtrust
p503
aVlate
p504
aVcenter
p505
aVblood
p506
aVstock
p507
aVworried
p508
aVcuomo
p509
aVmass
p510
aVaid
p511
aVwashington
p512
aVexposed
p513
aVcut
p514
aVbillion
p515
aVpaid
p516
aVbuy
p517
aVleader
p518
aVcommunities
p519
aVeffective
p520
aVnyc
p521
aVeffects
p522
aVimagine
p523
aVevents
p524
aVsurge
p525
aVslow
p526
aVbreak
p527
aVinside
p528
aVcollege
p529
aVkeeping
p530
aVdetails
p531
aVstarting
p532
aVchief
p533
aVtelling
p534
aVsummer
p535
aVny
p536
aVputting
p537
aVprotests
p538
aVahead
p539
aVvirtual
p540
aVbit
p541
aVpotential
p542
aVrecent
p543
aVjoe
p544
aVbiggest
p545
aVdamn
p546
aVspecial
p547
aVlying
p548
aVrepublicans
p549
aVsecurity
p550
aVlie
p551
aVweekend
p552
aVpass
p553
aVreleased
p554
aVmessage
p555
aVlearning
p556
aVfalse
p557
aVelderly
p558
aVexperience
p559
aVdate
p560
aVanswer
p561
aVguidance
p562
aVafrica
p563
aVfront
p564
aVrelease
p565
aVperiod
p566
aVchild
p567
aVfox
p568
aVactive
p569
aVlight
p570
aVchinas
p571
aVtask
p572
aVcreated
p573
aVbody
p574
aV9
p575
aVworldwide
p576
aVnurses
p577
aV11
p578
aVrally
p579
aV25
p580
aVtreat
p581
aVcities
p582
aVfailure
p583
aVforget
p584
aVbriefing
p585
aVlockdowns
p586
aVsource
p587
aVtransmission
p588
aVaustralia
p589
aVracist
p590
aVvaccines
p591
aVfine
p592
aVwho
p593
aVcount
p594
aVabsolutely
p595
aVcritical
p596
aVwoman
p597
aVfocus
p598
aVplayers
p599
aVforward
p600
aVcold
p601
aVdecision
p602
aVhydroxychloroquine
p603
aVcouldnt
p604
aVpence
p605
aVcost
p606
aVpolitics
p607
aVfolks
p608
aVcustomers
p609
aVstuff
p610
aVwatching
p611
aV13
p612
aVplaying
p613
aVepidemic
p614
aVwater
p615
aVstrategy
p616
aVworry
p617
aVwarns
p618
aVwearamask
p619
aVsurvive
p620
aVnorth
p621
aVconference
p622
aVmiss
p623
aVchanged
p624
aVstudent
p625
aVkorea
p626
aVcongress
p627
aVreality
p628
aVgovernors
p629
aVwash
p630
aVcoronavirusoutbreak
p631
aVfootball
p632
aVshes
p633
aVcover
p634
aVensure
p635
aVforced
p636
aVass
p637
aVtv
p638
aVexpert
p639
aVsports
p640
aV2019
p641
aVpackage
p642
aVfeeling
p643
aVpetition
p644
aVwife
p645
aVtips
p646
aVworth
p647
aVsupply
p648
aVremain
p649
aVpersonal
p650
aVcompletely
p651
aVmeet
p652
aVyouve
p653
aVaddress
p654
aVlose
p655
aVmortality
p656
aVprogram
p657
aVwake
p658
aVengland
p659
aVconspiracy
p660
aVwin
p661
aVcrazy
p662
aVdistance
p663
aVhasnt
p664
aVclimate
p665
aVsunday
p666
aVcar
p667
aVborisjohnson
p668
aVclass
p669
aVdear
p670
aVpaper
p671
aVnarendramodi
p672
aVmeeting
p673
aVnice
p674
aV1000
p675
aVpassed
p676
aVrestaurants
p677
aVshort
p678
aVdifficult
p679
aVstaying
p680
aVnigeria
p681
aVmiddle
p682
aVmarkets
p683
aVeffect
p684
aVjanuary
p685
aVclaim
p686
aVsuffering
p687
aVwebinar
p688
aVban
p689
aVstrong
p690
aVterm
p691
aV1st
p692
aVdebate
p693
aVopinion
p694
aVexpect
p695
aViran
p696
aVrights
p697
aVupdated
p698
aVleading
p699
aVrussia
p700
aVthursday
p701
aVfacebook
p702
aVloved
p703
aVtuesday
p704
aVrising
p705
aVteachers
p706
aVmassive
p707
aVfunds
p708
aVsenate
p709
aVobama
p710
aVbringing
p711
aVred
p712
aVloss
p713
aVillness
p714
aVbook
p715
aVinsurance
p716
aVchallenges
p717
aVbrought
p718
aVamazing
p719
aVdigital
p720
aVtill
p721
aVstand
p722
aVstayhome
p723
aVflights
p724
aVtodays
p725
aVsociety
p726
aVattention
p727
aVcoronaviruspandemic
p728
aVsupplies
p729
aVreduce
p730
aVexpected
p731
aVcaught
p732
aVconcerned
p733
aVincreased
p734
aVicu
p735
aVbattle
p736
aVscared
p737
aVstatement
p738
aVrecently
p739
aVsevere
p740
aVpeoples
p741
aVopportunity
p742
aVphone
p743
aVwhitehouse
p744
aVcouple
p745
aVvoting
p746
aVsuper
p747
aVworlds
p748
aVshouldnt
p749
aVmom
p750
aVspain
p751
aVborder
p752
aVjoke
p753
aVcreate
p754
aV40
p755
aVeu
p756
aVtown
p757
aVfacing
p758
aVtonight
p759
aVcourt
p760
aVwords
p761
aVheld
p762
aVbank
p763
aVgermany
p764
aVbeginning
p765
aVdems
p766
aVmultiple
p767
aVbeat
p768
aVlower
p769
aV18
p770
aVdrop
p771
aVprotection
p772
aVdisaster
p773
aVfun
p774
aVprecautions
p775
aVword
p776
aVmilitary
p777
aVcancel
p778
aVlondon
p779
aVstopped
p780
aVmayor
p781
aVattack
p782
aVviruses
p783
aVdealing
p784
aVfrance
p785
aVtrack
p786
aVwow
p787
aVspreads
p788
aVjapan
p789
aVfast
p790
aVracism
p791
aVstore
p792
aVwest
p793
aVtrial
p794
aVactual
p795
aVwednesday
p796
aVadditional
p797
aVdiscuss
p798
aVnytimes
p799
aVfigures
p800
aVpray
p801
aVnations
p802
aVstep
p803
aVannounces
p804
aVkills
p805
aVgates
p806
aVsupposed
p807
aVearlier
p808
aVoffer
p809
aVrepublican
p810
aVeasy
p811
aVgames
p812
aVcomplete
p813
aVtells
p814
aVaccount
p815
aVreading
p816
aVquickly
p817
aVcapacity
p818
aVfacilities
p819
aVadd
p820
aVpiece
p821
aVchurch
p822
aVwhos
p823
aVapparently
p824
aVcombat
p825
aVnovember
p826
aVhundreds
p827
aVwarning
p828
aVplanning
p829
aV22
p830
aVpelosi
p831
aVnurse
p832
aVdirector
p833
aVaverage
p834
aVgt
p835
aVvictims
p836
aVdamage
p837
aVafraid
p838
aVprotest
p839
aVnygovcuomo
p840
aVsaturday
p841
aVstayathome
p842
aValert
p843
aVblog
p844
aVsteps
p845
aVgoogle
p846
aVtracing
p847
aVrace
p848
aVstruggling
p849
aVgrowth
p850
aV60
p851
aVpage
p852
aVexplain
p853
aVstreet
p854
aVreach
p855
aVtheyve
p856
aVsimple
p857
aVherd
p858
aVanalysis
p859
aVtrip
p860
aVshutdown
p861
aVindian
p862
aVextra
p863
aVhot
p864
aVdonate
p865
aV16
p866
aVship
p867
aVclosing
p868
aVmedicine
p869
aVrecorded
p870
aVpneumonia
p871
aVfire
p872
aVdecided
p873
aVdifference
p874
aVrecords
p875
aVrole
p876
aV23
p877
aVtotally
p878
aVlots
p879
aVmajority
p880
aVanxiety
p881
aV100000
p882
aVkits
p883
aV2nd
p884
aVventilators
p885
aVaugust
p886
aVpostponed
p887
aVlosing
p888
aVcentre
p889
aV17
p890
aVtech
p891
aVmoving
p892
aVtechnology
p893
aVdistrict
p894
aVsurvey
p895
aVcovid2019
p896
aVhits
p897
aVamount
p898
aVreceived
p899
aVminutes
p900
aVur
p901
aVflight
p902
aVbrexit
p903
aVprime
p904
aVconcern
p905
aVfrontline
p906
aVpush
p907
aVimpacted
p908
aVsales
p909
aVasymptomatic
p910
aVemail
p911
aVmanagement
p912
aVcontract
p913
aVprepare
p914
aVapproach
p915
aVpublished
p916
aVeffort
p917
aVsupporting
p918
aVanymore
p919
aVstores
p920
aVmusic
p921
aVyoutube
p922
aVstories
p923
aVsending
p924
aVdiseases
p925
aVchallenge
p926
aVbenefits
p927
aVview
p928
aVsector
p929
aVrecover
p930
aVpmoindia
p931
aV21
p932
aVregister
p933
aVcruise
p934
aVprocess
p935
aVsite
p936
aVabc
p937
aVfda
p938
aVprice
p939
aVfunny
p940
aVseries
p941
aVproud
p942
aVcurve
p943
aVaint
p944
aVinterview
p945
aVviral
p946
aVmother
p947
aVbuilding
p948
aVwanna
p949
aVinfectious
p950
aVtrade
p951
aVcares
p952
aVrisks
p953
aVdrugs
p954
aVla
p955
aVincome
p956
aVpercent
p957
aVspace
p958
aVresearchers
p959
aVincreasing
p960
aVeat
p961
aVthread
p962
aVquarantined
p963
aVdelhi
p964
aVlevels
p965
aVoutbreaks
p966
aVsocialdistancing
p967
aVson
p968
aVexcuse
p969
aVspeak
p970
aVhandle
p971
aVoil
p972
aVfebruary
p973
aVmail
p974
aVinclude
p975
aVproject
p976
aVcough
p977
aVcharge
p978
aVreuters
p979
aVceo
p980
aVrespiratory
p981
aVpaying
p982
aVcash
p983
aVremote
p984
aVfans
p985
aVsurprised
p986
aVbrain
p987
aV2021
p988
aVtrials
p989
aVmark
p990
aVpractice
p991
aVlied
p992
aVvp
p993
aVled
p994
aVministry
p995
aVsharing
p996
aVnotice
p997
aVyoull
p998
aVisland
p999
aVphase
p1000
aVprepared
p1001
aVshame
p1002
aVdad
p1003
aVfoxnews
p1004
aVdrive
p1005
aVpoliticians
p1006
aVseptember
p1007
aVcanceled
p1008
aVcoverage
p1009
aVdeveloped
p1010
aVexposure
p1011
aVsimilar
p1012
aVrequest
p1013
aVpolicies
p1014
aVcredit
p1015
aVactions
p1016
aVproduction
p1017
aVtreating
p1018
aVgrowing
p1019
aVhelped
p1020
aVbaby
p1021
aVorganization
p1022
aVstress
p1023
aVclinical
p1024
aVjohn
p1025
aVdevelopment
p1026
aVclean
p1027
aVrequired
p1028
aVmisinformation
p1029
aVresponsibility
p1030
aVhour
p1031
aVdemocrat
p1032
aVprison
p1033
aVboard
p1034
aVspent
p1035
aVauthorities
p1036
aVrespond
p1037
aVdelivery
p1038
aVconfirms
p1039
aVoctober
p1040
aVusual
p1041
aVpakistan
p1042
aVmichigan
p1043
aVsars
p1044
aVstats
p1045
aVhospitalized
p1046
aVnote
p1047
aVbritish
p1048
aVlimited
p1049
aVsystems
p1050
aVdebt
p1051
aVstudies
p1052
aVshot
p1053
aVspending
p1054
aVlines
p1055
aV80
p1056
aVcondition
p1057
aVproviding
p1058
aVteams
p1059
aVbegin
p1060
aVsimply
p1061
aVdiagnosed
p1062
aVidiot
p1063
aVbeds
p1064
aVrallies
p1065
aVantibody
p1066
aVreasons
p1067
aVglad
p1068
aVsmart
p1069
aVclick
p1070
aVmodel
p1071
aVtalks
p1072
aVbuying
p1073
aVtouch
p1074
aVfault
p1075
aVrespect
p1076
aVamazon
p1077
aVbusy
p1078
aVworker
p1079
aVtraining
p1080
aVborders
p1081
aVsupporters
p1082
aVclasses
p1083
aVhearing
p1084
aVspring
p1085
aVfever
p1086
aVcentral
p1087
aVmike
p1088
aVform
p1089
aVrapid
p1090
aVsolution
p1091
aVbars
p1092
aVbullshit
p1093
aVequipment
p1094
aV0
p1095
aVtreated
p1096
aVleague
p1097
aVlock
p1098
aVadded
p1099
aVreceive
p1100
aVhelps
p1101
aVguardian
p1102
aVapply
p1103
aVholding
p1104
aVpeak
p1105
aVpodcast
p1106
aVprevention
p1107
aVdumb
p1108
aVhumans
p1109
aVimmediately
p1110
aVbirthday
p1111
aVcompared
p1112
aVspend
p1113
aVbs
p1114
aVsarscov2
p1115
aVscientific
p1116
aVcausing
p1117
aVdelay
p1118
aVcatching
p1119
aVreview
p1120
aVmention
p1121
aVsan
p1122
aVrich
p1123
aVdeep
p1124
aVnyt
p1125
aVpls
p1126
aVsounds
p1127
aVaffect
p1128
aVdemocratic
p1129
aVlinked
p1130
aVlargest
p1131
aV5g
p1132
aVtoilet
p1133
aVrealize
p1134
aVforeign
p1135
aVsenior
p1136
aVstocks
p1137
aVtype
p1138
aV45
p1139
aVgatherings
p1140
aVmsnbc
p1141
aVblue
p1142
aVeveryday
p1143
aVassistance
p1144
aV28
p1145
aVbuild
p1146
aVcontracted
p1147
aVongoing
p1148
aVtough
p1149
aVdoubt
p1150
aVsweden
p1151
aVenjoy
p1152
aVrecession
p1153
aVdanger
p1154
aVquick
p1155
aVearth
p1156
aVwall
p1157
aVperfect
p1158
aVpossibly
p1159
aVwarned
p1160
aVfacility
p1161
aVstreets
p1162
aVspeakerpelosi
p1163
aVempty
p1164
aVantibodies
p1165
aVpark
p1166
aV70
p1167
aVoffering
p1168
aVhonestly
p1169
aVdecisions
p1170
aVera
p1171
aVfigure
p1172
aVfair
p1173
aVbet
p1174
aVchoice
p1175
aVstage
p1176
aVmissed
p1177
aVwalk
p1178
aVpoll
p1179
aVthehill
p1180
aVcoronavirusupdate
p1181
aVidiots
p1182
aVletter
p1183
aVlearned
p1184
aVtracking
p1185
aVbenefit
p1186
aVjustice
p1187
aVsuggests
p1188
aVdelayed
p1189
aVvoters
p1190
aVpiersmorgan
p1191
aVrent
p1192
aVsigns
p1193
aVeuropean
p1194
aVregion
p1195
aVcorrect
p1196
aVdirectly
p1197
aVchanging
p1198
aVepisode
p1199
aVcouncil
p1200
aVleaving
p1201
aVya
p1202
aVpostcovid
p1203
aV200000
p1204
aVindividuals
p1205
aVviolence
p1206
aVcontagious
p1207
aVroad
p1208
aVeyes
p1209
aVtired
p1210
aVamericas
p1211
aVpushing
p1212
aVaware
p1213
aVinfect
p1214
aVattacks
p1215
aVstuck
p1216
aVireland
p1217
aVprotecting
p1218
aV500
p1219
aVmandatory
p1220
aVignore
p1221
aVraise
p1222
aVdouble
p1223
aVstraight
p1224
aVhoping
p1225
aVscary
p1226
aVcuts
p1227
aVmissing
p1228
aVmodi
p1229
aVrestaurant
p1230
aVstaysafe
p1231
aVdevelop
p1232
aVshares
p1233
aVjail
p1234
aVpressure
p1235
aVexecutive
p1236
aVphysical
p1237
aVsignificant
p1238
aVdirect
p1239
aVshopping
p1240
aVmain
p1241
aVmild
p1242
aVsecretary
p1243
aVfreedom
p1244
aVsuccess
p1245
aVhumanity
p1246
aVstatus
p1247
aVrule
p1248
aVimpacts
p1249
aVcontracting
p1250
aVtweets
p1251
aVohio
p1252
aVprotective
p1253
aVdaughter
p1254
aVsaved
p1255
aVeast
p1256
aVccp
p1257
aVnature
p1258
aVmovie
p1259
aVfeels
p1260
aVscotland
p1261
aVmaga
p1262
aVpropaganda
p1263
aVgeorgia
p1264
aVbrazil
p1265
aVagenda
p1266
aVallowing
p1267
aVafrican
p1268
aVprofessionals
p1269
aVexams
p1270
aVknowing
p1271
aVwtf
p1272
aVhusband
p1273
aVfeb
p1274
aVhighly
p1275
aV90
p1276
aVinternet
p1277
aVgrocery
p1278
aVprices
p1279
aVsafely
p1280
aVtheyll
p1281
aVbrother
p1282
aVstatistics
p1283
aVlocked
p1284
aVhospitalizations
p1285
aVbudget
p1286
aVlistening
p1287
aVblaming
p1288
aVadults
p1289
aVproof
p1290
aVguide
p1291
aVextremely
p1292
aVpassengers
p1293
aVterrible
p1294
aVcovering
p1295
aVmanage
p1296
aVst
p1297
aVenergy
p1298
aVparties
p1299
aVcomments
p1300
aVreminder
p1301
aVde
p1302
aVbills
p1303
aVhong
p1304
aVwerent
p1305
aVsuspected
p1306
aVcool
p1307
aVremains
p1308
aVlegal
p1309
aVbasically
p1310
aVproper
p1311
aVhomeless
p1312
aVfather
p1313
aVbasic
p1314
aVoffers
p1315
aVshown
p1316
aVjan
p1317
aVunderlying
p1318
aVmeant
p1319
aVmap
p1320
aVanimals
p1321
aVeating
p1322
aVregular
p1323
aVhotel
p1324
aVhousing
p1325
aVextended
p1326
aVpriority
p1327
aVzoom
p1328
aVgreen
p1329
aV200
p1330
aVrises
p1331
aVtheory
p1332
aVemployee
p1333
aVclub
p1334
aVspeaking
p1335
aVurgent
p1336
aV\U0001f602
p1337
aVadmitted
p1338
aVwh
p1339
aVairlines
p1340
aVwinter
p1341
aValive
p1342
aV26
p1343
aVindias
p1344
aVshop
p1345
aVchecks
p1346
aVsuggest
p1347
aVevil
p1348
aVshared
p1349
aVposted
p1350
aVplanned
p1351
aVontario
p1352
aVfed
p1353
aVreturning
p1354
aVwondering
p1355
aVdiagnosis
p1356
aVapproved
p1357
aVfinding
p1358
aVactivities
p1359
aVwarn
p1360
aVdeliver
p1361
aVreveals
p1362
aVtom
p1363
aVenvironment
p1364
aVpayments
p1365
aVfinal
p1366
aVincompetence
p1367
aVdomestic
p1368
aVcriminal
p1369
aVplayed
p1370
aVmoved
p1371
aVanswers
p1372
aVunion
p1373
aVbigger
p1374
aVissued
p1375
aVholiday
p1376
aVprotocols
p1377
aVexplains
p1378
aVinfluenza
p1379
aVdog
p1380
aVdoor
p1381
aVsuspended
p1382
aVgirl
p1383
aVkong
p1384
aVbanks
p1385
aVpicture
p1386
aVhair
p1387
aVexcellent
p1388
aVofficer
p1389
aVround
p1390
aVexam
p1391
aVsaving
p1392
aVproducts
p1393
aVmexico
p1394
aVdeserve
p1395
aVarizona
p1396
aV3rd
p1397
aV27
p1398
aVlimit
p1399
aVforever
p1400
aVlady
p1401
aVdownload
p1402
aVaccurate
p1403
aVstarts
p1404
aVlessons
p1405
aVcenters
p1406
aV31
p1407
aVeye
p1408
aVweather
p1409
aVbeach
p1410
aVprior
p1411
aVbed
p1412
aVcosts
p1413
aVcomplications
p1414
aVtrillion
p1415
aVpre
p1416
aVnationwide
p1417
aVsources
p1418
aVsound
p1419
aVdollars
p1420
aVriots
p1421
aVowners
p1422
aVfraud
p1423
aVunprecedented
p1424
aVhurt
p1425
aVprovided
p1426
aVrussian
p1427
aVsuffer
p1428
aVridiculous
p1429
aVplasma
p1430
aVapple
p1431
aVtaxes
p1432
aVprovince
p1433
aVscare
p1434
aVpotentially
p1435
aVground
p1436
aVannounce
p1437
aVincludes
p1438
aVdiscussion
p1439
aVweird
p1440
aVtreatments
p1441
aV10000
p1442
aVprayers
p1443
aVlongterm
p1444
aVreached
p1445
aVnose
p1446
aVpeace
p1447
aVsolutions
p1448
aVexist
p1449
aVpick
p1450
aVisolate
p1451
aVcdcgov
p1452
aVsit
p1453
aVnba
p1454
aVmess
p1455
aVwrite
p1456
aVrefuse
p1457
aVnarrative
p1458
aVcivil
p1459
aVrecoveries
p1460
aVchris
p1461
aVprevious
p1462
aVchain
p1463
aVstrain
p1464
aVfatality
p1465
aVmad
p1466
aVaccept
p1467
aVattend
p1468
aVsell
p1469
aVrefund
p1470
aVprove
p1471
aVoperations
p1472
aVclosures
p1473
aVindependent
p1474
aVairport
p1475
aVsanitizer
p1476
aVdepression
p1477
aVsurvival
p1478
aVprotesters
p1479
aVletting
p1480
aVcampus
p1481
aVmouth
p1482
aVcovid19india
p1483
aVcreating
p1484
aVrosiewearamask
p1485
aVventilator
p1486
aVdeclared
p1487
aVfield
p1488
aVselfish
p1489
aVscientist
p1490
aVspanish
p1491
aVmatters
p1492
aVzealand
p1493
aVboy
p1494
aVjesus
p1495
aVvideos
p1496
aVafford
p1497
aVphoto
p1498
aVpandemics
p1499
aVbeautiful
p1500
aVcomment
p1501
aVloan
p1502
aVcounties
p1503
aVgotta
p1504
aVinformed
p1505
aVprimary
p1506
aVpain
p1507
aVunable
p1508
aVproven
p1509
aVhost
p1510
aVreduced
p1511
aVdc
p1512
aVinvolved
p1513
aVeasily
p1514
aVexperiencing
p1515
aVcounting
p1516
aVpersonally
p1517
aVspeech
p1518
aVscam
p1519
aVunemployed
p1520
aVgrow
p1521
aVblm
p1522
aVweekly
p1523
aVposition
p1524
aVarmy
p1525
aVscheme
p1526
aVacting
p1527
aVplague
p1528
aVselling
p1529
aVunderstanding
p1530
aVvoted
p1531
aVlungs
p1532
aVisrael
p1533
aVnetwork
p1534
aVappears
p1535
aVstar
p1536
aVconsidered
p1537
aVconsequences
p1538
aVmarketing
p1539
aVawareness
p1540
aVpayment
p1541
aVrefused
p1542
aVebola
p1543
aVcommittee
p1544
aVseniors
p1545
aVdestroy
p1546
aVmurder
p1547
aVwrote
p1548
aVwaste
p1549
aVcanadian
p1550
aVagency
p1551
aVsitting
p1552
aVsites
p1553
aVwashing
p1554
aVchoose
p1555
aVhelpful
p1556
aVasian
p1557
aVspot
p1558
aVchicago
p1559
aVdecember
p1560
aVlmao
p1561
aVsecret
p1562
aVcommunist
p1563
aVtemporary
p1564
aVpoverty
p1565
aVprofessor
p1566
aVshortage
p1567
aVclaiming
p1568
aVbar
p1569
aVwales
p1570
aVcontinued
p1571
aVtally
p1572
aVitalian
p1573
aVfresh
p1574
aVability
p1575
aVpersons
p1576
aVaustralian
p1577
aVsadly
p1578
aVcrime
p1579
aVintelligence
p1580
aVincompetent
p1581
aVoptions
p1582
aVideas
p1583
aVjump
p1584
aVfit
p1585
aVconversation
p1586
aVmeat
p1587
aVchaos
p1588
aVcarry
p1589
aVbriefings
p1590
aVdriving
p1591
aVsurprise
p1592
aVboost
p1593
aVnatural
p1594
aVterms
p1595
aVshift
p1596
aVdavid
p1597
aVretail
p1598
aVsa
p1599
aVcustomer
p1600
aV29
p1601
aVpresidential
p1602
aVperspective
p1603
aVsurely
p1604
aVwalking
p1605
aVwrites
p1606
aVart
p1607
aVhiv
p1608
aVfix
p1609
aVdrink
p1610
aVbroke
p1611
aVcountrys
p1612
aVtourism
p1613
aVmatthancock
p1614
aVaffecting
p1615
aV35
p1616
aVteacher
p1617
aVignoring
p1618
aVpresidents
p1619
aVdisgusting
p1620
aVdude
p1621
aVhandled
p1622
aVoption
p1623
aVsong
p1624
aVorange
p1625
aVillegal
p1626
aVtemporarily
p1627
aVmine
p1628
aVtour
p1629
aVskynews
p1630
aVbus
p1631
aVcleaning
p1632
aVfewer
p1633
aVuncertainty
p1634
aVheroes
p1635
aVfly
p1636
aVcrap
p1637
aVsenator
p1638
aVna
p1639
aVgeorge
p1640
aVrequire
p1641
aVfaster
p1642
aVfatalities
p1643
aVofficially
p1644
aVamidst
p1645
aVnj
p1646
aVbritain
p1647
aVgrant
p1648
aVshops
p1649
aVlung
p1650
aVmovement
p1651
aVvoice
p1652
aVcolleagues
p1653
aVemployers
p1654
aVsigned
p1655
aVloans
p1656
aVplanet
p1657
aVsymptom
p1658
aVtransport
p1659
aVsmartnews
p1660
aVtrumpvirus
p1661
aVsister
p1662
aVirresponsible
p1663
aVcareful
p1664
aVorganizations
p1665
aVvital
p1666
aVtarget
p1667
aVserve
p1668
aVcard
p1669
aVelections
p1670
aVtackle
p1671
aVdeveloping
p1672
aV\U0001f914
p1673
aVmanaging
p1674
aVglobally
p1675
aVhiding
p1676
aVsingapore
p1677
aVexclusive
p1678
aVbro
p1679
aValcohol
p1680
aVnfl
p1681
aVsleep
p1682
aVspecific
p1683
aVpretend
p1684
aVarrested
p1685
aVinstitute
p1686
aVscreening
p1687
aVbunch
p1688
aVprograms
p1689
aVignorant
p1690
aVregulations
p1691
aVcelebrate
p1692
aVtrain
p1693
aVcurfew
p1694
aVbought
p1695
aVrn
p1696
aVfeed
p1697
aVliberal
p1698
aVsex
p1699
aVwellbeing
p1700
aVgolf
p1701
aVbanned
p1702
aVcapital
p1703
aVfellow
p1704
aVcorrupt
p1705
aVbitch
p1706
aVfeet
p1707
aVdem
p1708
aVattempt
p1709
aVmobile
p1710
aVculture
p1711
aVpremier
p1712
aVpreparing
p1713
aVrural
p1714
aVvolunteers
p1715
aVcontent
p1716
aVdonated
p1717
aVnpr
p1718
aVwinning
p1719
aVjudge
p1720
aVfucked
p1721
aVyoud
p1722
aVlord
p1723
aVillinois
p1724
aVtrace
p1725
aVmaintain
p1726
aVforces
p1727
aVpaul
p1728
aVap
p1729
aVluck
p1730
aVinvestigation
p1731
aVhorrible
p1732
aVlaunched
p1733
aVmsm
p1734
aVsuicide
p1735
aVfail
p1736
aVhide
p1737
aVbreathing
p1738
aVcorruption
p1739
aVwild
p1740
aVhonest
p1741
aVblock
p1742
aVwed
p1743
aVrevealed
p1744
aVsenatemajldr
p1745
aVknowledge
p1746
aVweak
p1747
aVrid
p1748
aVpasses
p1749
aVcontinuing
p1750
aVquality
p1751
aVcuz
p1752
aVomg
p1753
aVad
p1754
aVannouncement
p1755
aVfrench
p1756
aVland
p1757
aVlabs
p1758
aVminute
p1759
aVisolated
p1760
aVexercise
p1761
aVindividual
p1762
aVpractices
p1763
aVease
p1764
aVbrings
p1765
aVbodies
p1766
aVchances
p1767
aVkid
p1768
aVsooner
p1769
aVlosses
p1770
aVdisappear
p1771
aVnonsense
p1772
aVbase
p1773
aVstopping
p1774
aVandrew
p1775
aVlaws
p1776
aVcnbc
p1777
aVadmit
p1778
aVdogs
p1779
aVresponding
p1780
aVrevenue
p1781
aVcovered
p1782
aV\U0001f9a0
p1783
aVuniversities
p1784
aVplayer
p1785
aVdonaldjtrumpjr
p1786
aVstrict
p1787
aVitll
p1788
aVeaster
p1789
aVtaiwan
p1790
aVasia
p1791
aV34
p1792
aVabsolute
p1793
aVcovid19uk
p1794
aVanimal
p1795
aVextend
p1796
aVgathering
p1797
aVenter
p1798
aVfailing
p1799
aVyouth
p1800
aVdropped
p1801
aVobvious
p1802
aVapproval
p1803
aVmeasure
p1804
aVsuddenly
p1805
aV300
p1806
aVtho
p1807
aVrecovering
p1808
aVgas
p1809
aVairborne
p1810
aVdefeat
p1811
aVlabour
p1812
aVstupidity
p1813
aVresource
p1814
aVfaith
p1815
aVwestern
p1816
aVsupreme
p1817
aVtimeline
p1818
aVpostpone
p1819
aVopportunities
p1820
aVtool
p1821
aVai
p1822
aVwriting
p1823
aVplatform
p1824
aVresponses
p1825
aVwisconsin
p1826
aVenglish
p1827
aVca
p1828
aVlaunch
p1829
aVclaimed
p1830
aVsort
p1831
aVcope
p1832
aVevening
p1833
aVsold
p1834
aVproperly
p1835
aVsucks
p1836
aVsession
p1837
aV2000
p1838
aVconfirm
p1839
aVtrend
p1840
aVidentify
p1841
aVcrash
p1842
aVcompare
p1843
aVbreath
p1844
aVdecline
p1845
aVurges
p1846
aVnorthern
p1847
aVmet
p1848
aVprogress
p1849
aVpartner
p1850
aVbtw
p1851
aVspoke
p1852
aVwritten
p1853
aVimportance
p1854
aVfilm
p1855
aVactivity
p1856
aVfoundation
p1857
aVcalm
p1858
aVharder
p1859
aVclosure
p1860
aVclients
p1861
aVbegins
p1862
aVimpossible
p1863
aVbbcnews
p1864
aVpa
p1865
aVstruggle
p1866
aVboss
p1867
aVleads
p1868
aVpushed
p1869
aVprofit
p1870
aVraising
p1871
aVlooked
p1872
aVmichael
p1873
aVincreases
p1874
aVpartners
p1875
aVlowest
p1876
aVbless
p1877
aVhcq
p1878
aVbelieves
p1879
aVmentioned
p1880
aVprojects
p1881
aVkenya
p1882
aVhygiene
p1883
aVitems
p1884
aVsearch
p1885
aVbeijing
p1886
aVvictoria
p1887
aVlagos
p1888
aVlos
p1889
aVinsane
p1890
aVdecide
p1891
aVseasonal
p1892
aVprotesting
p1893
aVcounted
p1894
aVward
p1895
aVmumbai
p1896
aVaffects
p1897
aVincluded
p1898
aVofficers
p1899
aVputin
p1900
aVrapidly
p1901
aVking
p1902
aVresume
p1903
aVdrinking
p1904
aVschedule
p1905
aVstrategies
p1906
aVingrahamangle
p1907
aVdrivers
p1908
aVlaunches
p1909
aVabuse
p1910
aVmidst
p1911
aVbuilt
p1912
aVtune
p1913
aVjersey
p1914
aVtrends
p1915
aVindiafightscorona
p1916
aVteaching
p1917
aVstorm
p1918
aVstands
p1919
aVdelays
p1920
aVfavorite
p1921
aVscale
p1922
aV911
p1923
aVencourage
p1924
aVignorance
p1925
aVduty
p1926
aVoperating
p1927
aVfalling
p1928
aVcloses
p1929
aVcontext
p1930
aVtrouble
p1931
aVdischarged
p1932
aVvictim
p1933
aVwashingtonpost
p1934
aVcoronavirusupdates
p1935
aVmanaged
p1936
aVannual
p1937
aVspeed
p1938
aVcross
p1939
aVexcess
p1940
aVglobe
p1941
aVadmin
p1942
aVscheduled
p1943
aVfocused
p1944
aVinperson
p1945
aVurge
p1946
aVgloves
p1947
aVh1n1
p1948
aVunit
p1949
aVexcited
p1950
aVbooks
p1951
aVnancy
p1952
aVchristmas
p1953
aVcorporate
p1954
aVtheories
p1955
aVflying
p1956
aVproduce
p1957
aVwatched
p1958
aVer
p1959
aVseek
p1960
aVremove
p1961
aVsun
p1962
aVbroken
p1963
aVversion
p1964
aVtraffic
p1965
aVprofessional
p1966
aVpredicted
p1967
aVhall
p1968
aVlucky
p1969
aVbillions
p1970
aVsamples
p1971
aVjournalists
p1972
aVsuccessful
p1973
aVwedding
p1974
aVseanhannity
p1975
aVshutting
p1976
aVfan
p1977
aVgerman
p1978
aVauthority
p1979
aVarticles
p1980
aVcrowd
p1981
aVvisitors
p1982
aV4th
p1983
aVreaction
p1984
aVadvantage
p1985
aVracial
p1986
aVraised
p1987
aVparks
p1988
aVremoved
p1989
aVkinda
p1990
aVharm
p1991
aVradio
p1992
aVunknown
p1993
aVremdesivir
p1994
aVkindly
p1995
aVministers
p1996
aVbat
p1997
aVdoors
p1998
aVdenied
p1999
aVsmh
p2000
aVimprove
p2001
aVfired
p2002
aVcircle
p2003
aVhalloween
p2004
aVpowerful
p2005
aVlaid
p2006
aVreligious
p2007
aVidk
p2008
aVuks
p2009
aVpurpose
p2010
aVsky
p2011
aVplenty
p2012
aVgrateful
p2013
aVimpeachment
p2014
aVgym
p2015
aVhopes
p2016
aVforcing
p2017
aVseeking
p2018
aVpraying
p2019
aVdemocracy
p2020
aVsetting
p2021
aVproviders
p2022
aVcolleges
p2023
aVliar
p2024
aVanthony
p2025
aVassume
p2026
aVgain
p2027
aVstandard
p2028
aVcanadians
p2029
aVidentified
p2030
aVbehavior
p2031
aVdecades
p2032
aVmcconnell
p2033
aVangry
p2034
aVwonderful
p2035
aVten
p2036
aVinitiative
p2037
aVwide
p2038
aVdisinfectant
p2039
aVworkplace
p2040
aVvirginia
p2041
aVfarmers
p2042
aVangeles
p2043
aVmanufacturing
p2044
aVposts
p2045
aVmeetings
p2046
aVice
p2047
aVupcoming
p2048
aVquarter
p2049
aVoffices
p2050
aVsmell
p2051
aVwhilst
p2052
aVcummings
p2053
aVcured
p2054
aVanti
p2055
aVtory
p2056
aVpassing
p2057
aVoriginated
p2058
aVgun
p2059
aVthrow
p2060
aVawful
p2061
aVuseless
p2062
aVmandate
p2063
aVdream
p2064
aVtrending
p2065
aVcaring
p2066
aVroll
p2067
aVattending
p2068
aVmeals
p2069
aVfuneral
p2070
aVsecure
p2071
aVbreaks
p2072
aVplant
p2073
aVgoal
p2074
aVmaharashtra
p2075
aVdestroyed
p2076
aV75
p2077
aVpathetic
p2078
aVexisting
p2079
aVthousand
p2080
aVadding
p2081
aVconnected
p2082
aVeasier
p2083
aVowner
p2084
aVspeaks
p2085
aVgold
p2086
aVdefense
p2087
aVrefusing
p2088
aVreturned
p2089
aVbans
p2090
aVcode
p2091
aVchurches
p2092
aVwidespread
p2093
aVzone
p2094
aVargument
p2095
aVbay
p2096
aVpanel
p2097
aVtherapy
p2098
aVguard
p2099
aVprayer
p2100
aVcurb
p2101
aVfollowers
p2102
aVinvestment
p2103
aVchallenging
p2104
aVlabor
p2105
aVsurvived
p2106
aVimmigration
p2107
aVstanding
p2108
aVdeclares
p2109
aVcrucial
p2110
aVpreexisting
p2111
aVchannel
p2112
aVmodels
p2113
aVagencies
p2114
aVbadly
p2115
aVcloser
p2116
aVassist
p2117
aVbleach
p2118
aVmatt
p2119
aVbeer
p2120
aVfinance
p2121
aVwon
p2122
aVseverity
p2123
aVmalaria
p2124
aVjournal
p2125
aVdevastating
p2126
aVheads
p2127
aVinfrastructure
p2128
aVcentres
p2129
aVcoughing
p2130
aVtools
p2131
aVclubs
p2132
aVdesigned
p2133
aVenemy
p2134
aVbasis
p2135
aVoffered
p2136
aVprisons
p2137
aVassociation
p2138
aVbattling
p2139
aVreporter
p2140
aVhunger
p2141
aVoverwhelmed
p2142
aVn95
p2143
aVhysteria
p2144
aVlocation
p2145
aVcollapse
p2146
aVcitizen
p2147
aVvietnam
p2148
aVdonations
p2149
aVcarolina
p2150
aVfactor
p2151
aVproperty
p2152
aVfirms
p2153
aVconservative
p2154
aVrep
p2155
aVrelevant
p2156
aVextreme
p2157
aVparliament
p2158
aVphotos
p2159
aVcovidiots
p2160
aVdonating
p2161
aVrecommendations
p2162
aVhero
p2163
aVwarnings
p2164
aV65
p2165
aVdesperate
p2166
aVcells
p2167
aVseattle
p2168
aVdiabetes
p2169
aVsen
p2170
aVlisted
p2171
aVrip
p2172
aVconstruction
p2173
aVfirm
p2174
aVemployment
p2175
aVprisoners
p2176
aVconducted
p2177
aVawesome
p2178
aVicymi
p2179
aVinvestors
p2180
aVconcert
p2181
aVhotels
p2182
aVdark
p2183
aVpositives
p2184
aVpersonnel
p2185
aVchart
p2186
aVsuspend
p2187
aVfl
p2188
aVvitamin
p2189
aVpro
p2190
aVvolunteer
p2191
aVconfused
p2192
aVhousehold
p2193
aVregional
p2194
aVuniversal
p2195
aVagreed
p2196
aVvisiting
p2197
aVmistake
p2198
aVfill
p2199
aVsoap
p2200
aVdiscussing
p2201
aVdonation
p2202
aVmp
p2203
aV\U0001f64f
p2204
aVsenators
p2205
aVpollution
p2206
aVcreative
p2207
aVchloroquine
p2208
aVcamp
p2209
aVelected
p2210
aVaged
p2211
aVlegislation
p2212
aV99
p2213
aVholds
p2214
aVgdp
p2215
aVdelivered
p2216
aVsolidarity
p2217
aVscenario
p2218
aVinnovation
p2219
aVbubble
p2220
aVbrilliant
p2221
aV33
p2222
aVoct
p2223
aVpreventing
p2224
aVcandidate
p2225
aVgirls
p2226
aVplane
p2227
aVworkforce
p2228
aVforgot
p2229
aVphilippines
p2230
aVbats
p2231
aVsoldiers
p2232
aVflotus
p2233
aVfailures
p2234
aVheadline
p2235
aVsuspect
p2236
aVarrest
p2237
aVleaves
p2238
aVchat
p2239
aVmisleading
p2240
aVcrowds
p2241
aVtopic
p2242
aVgovrondesantis
p2243
aVafternoon
p2244
aVmonitoring
p2245
aVsize
p2246
aVprotected
p2247
aVinitial
p2248
aVpop
p2249
aVoriginal
p2250
aVcontainment
p2251
aVorigin
p2252
aVabroad
p2253
aVmeaning
p2254
aVmikepence
p2255
aVrose
p2256
aV\U0001f447
p2257
aVreceiving
p2258
aVresign
p2259
aVtrudeau
p2260
aVlakh
p2261
aVinsights
p2262
aVrush
p2263
aV\U0001f644
p2264
aVbox
p2265
aVdm
p2266
aVeveryones
p2267
aVvice
p2268
aVstrange
p2269
aVpubs
p2270
aVlinks
p2271
aVindoors
p2272
aVincredible
p2273
aVgrants
p2274
aVpresssec
p2275
aVpreviously
p2276
aVdisney
p2277
aVfestival
p2278
aVretweet
p2279
aVkamalaharris
p2280
aVremotely
p2281
aVreelection
p2282
aVpermanent
p2283
aVsignificantly
p2284
aVpull
p2285
aVtraveling
p2286
aVhalt
p2287
aVyep
p2288
aVmanager
p2289
aVentry
p2290
aVcharity
p2291
aVencouraging
p2292
aVpromise
p2293
aVunnecessary
p2294
aVabt
p2295
aVresident
p2296
aVmaddow
p2297
aVcars
p2298
aVbernie
p2299
aVillnesses
p2300
aVnov
p2301
aVsurfaces
p2302
aVsenschumer
p2303
aVstated
p2304
aVattended
p2305
aVforbes
p2306
aVal
p2307
aVheat
p2308
aVmatch
p2309
aVwouldve
p2310
aVsafer
p2311
aVvotes
p2312
aVcommission
p2313
aVreportedly
p2314
aVtoronto
p2315
aVmps
p2316
aVnames
p2317
aVtaste
p2318
aVhopkins
p2319
aVdistribution
p2320
aVpregnant
p2321
aVcrew
p2322
aVdesign
p2323
aVauspol
p2324
aVdesantis
p2325
aVvirtually
p2326
aVspecifically
p2327
aVpossibility
p2328
aVinmates
p2329
aVwsj
p2330
aVestate
p2331
aVsuspends
p2332
aVquit
p2333
aVtable
p2334
aVintensive
p2335
aVstream
p2336
aVnbcnews
p2337
aV600
p2338
aVsurgery
p2339
aVstick
p2340
aVhouses
p2341
aVrefuses
p2342
aVoxygen
p2343
aVcommitted
p2344
aVdemands
p2345
aVinsider
p2346
aVunlike
p2347
aVmessages
p2348
aVtemperature
p2349
aVcareer
p2350
aVturkey
p2351
aVnamed
p2352
aVcommercial
p2353
aVmath
p2354
aVclinic
p2355
aVtalked
p2356
aVvacation
p2357
aVfool
p2358
aVemails
p2359
aVsupports
p2360
aVrepublic
p2361
aV48
p2362
aVeconomies
p2363
aVcircumstances
p2364
aVbreathe
p2365
aVprojectlincoln
p2366
aVprivacy
p2367
aVcops
p2368
aVtickets
p2369
aVtens
p2370
aVovercome
p2371
aVposting
p2372
aVyo
p2373
aVselfisolation
p2374
aVepicenter
p2375
aVproduct
p2376
aVeducate
p2377
aVmoron
p2378
aVdiscovered
p2379
aVreturns
p2380
aVreleases
p2381
aVgavinnewsom
p2382
aVcontracts
p2383
aVcrowded
p2384
aVkiller
p2385
aVviews
p2386
aVaccountable
p2387
aVaka
p2388
aVshelter
p2389
aVcm
p2390
aVpolls
p2391
aVrecommend
p2392
aVarrived
p2393
aVstatewide
p2394
aVnz
p2395
aVtweeting
p2396
aVsets
p2397
aVshortages
p2398
aVwalmart
p2399
aVclosest
p2400
aVholy
p2401
aVharris
p2402
aVmoves
p2403
aVregistered
p2404
aVfactors
p2405
aVappointment
p2406
aVprotocol
p2407
aVworrying
p2408
aVrare
p2409
aVhitting
p2410
aVstronger
p2411
aVnope
p2412
aVplz
p2413
aVchecked
p2414
aVstrength
p2415
aVscott
p2416
aVticket
p2417
aVcoronaoutbreak
p2418
aVrs
p2419
aVpowers
p2420
aVthreatens
p2421
aVbrand
p2422
aVlift
p2423
aVvisits
p2424
aVurged
p2425
aVconservatives
p2426
aVteach
p2427
aVboys
p2428
aVskills
p2429
aV400
p2430
aVeffectively
p2431
aVconfidence
p2432
aVcounts
p2433
aVlogic
p2434
aVcharged
p2435
aVjoined
p2436
aVspreader
p2437
aVindoor
p2438
aVcnnpolitics
p2439
aVpositivity
p2440
aVaccounts
p2441
aVdept
p2442
aV3000
p2443
aVcolor
p2444
aVcurious
p2445
aVxi
p2446
aVgeneration
p2447
aVconduct
p2448
aVmiles
p2449
aVinstitutions
p2450
aVstation
p2451
aVregularly
p2452
aVneighbors
p2453
aVperformance
p2454
aVaids
p2455
aVworries
p2456
aVkit
p2457
aVallah
p2458
aVgrand
p2459
aVhouston
p2460
aVeventually
p2461
aVrisking
p2462
aVtext
p2463
aVtrading
p2464
aVbabies
p2465
aVgift
p2466
aVflatten
p2467
aVfaced
p2468
aVsyndrome
p2469
aVwins
p2470
aV2018
p2471
aVinfecting
p2472
aVsubject
p2473
aVscreens
p2474
aVcontrolled
p2475
aVsue
p2476
aVweapon
p2477
aVacosta
p2478
aVreporters
p2479
aVrange
p2480
aVcheap
p2481
aVhardest
p2482
aVpercentage
p2483
aVsport
p2484
aVfalls
p2485
aVcancels
p2486
aVdedicated
p2487
aVaccused
p2488
aVgarden
p2489
aVpromote
p2490
aVinstagram
p2491
aVcommunication
p2492
aVspaces
p2493
aVsudden
p2494
aVus
p2495
aVshocking
p2496
aVcult
p2497
aVedition
p2498
aVartists
p2499
aVreaches
p2500
aVspikes
p2501
aVcolorado
p2502
aVbarely
p2503
aVbailout
p2504
aVride
p2505
aVnightmare
p2506
aVmigrant
p2507
aVjames
p2508
aVdiscusses
p2509
aVswine
p2510
aVcoping
p2511
aVfallout
p2512
aVtulsa
p2513
aVbeaches
p2514
aVlesson
p2515
aVlocations
p2516
aVwindow
p2517
aVcoronavirusrelated
p2518
aVheadlines
p2519
aVcbs
p2520
aVpopular
p2521
aVlifted
p2522
aVbottom
p2523
aVblamed
p2524
aVdollar
p2525
aVregime
p2526
aVtouching
p2527
aVstops
p2528
aVcopy
p2529
aVfantastic
p2530
aViowa
p2531
aVcbc
p2532
aVbalance
p2533
aVcoffee
p2534
aVaug
p2535
aVmlb
p2536
aVreveal
p2537
aVdriver
p2538
aVprof
p2539
aVasap
p2540
aVadmits
p2541
aV36
p2542
aVcomparison
p2543
aVcomparing
p2544
aVji
p2545
aVblow
p2546
aVemerging
p2547
aVcell
p2548
aVcovid19s
p2549
aVfees
p2550
aVdistricts
p2551
aVcertificate
p2552
aVprincess
p2553
aVimmigrants
p2554
aV50000
p2555
aVgear
p2556
aVliberals
p2557
aVvoter
p2558
aVtokyo
p2559
aVdestroying
p2560
aVcomfort
p2561
aVshock
p2562
aVdon
p2563
aValarm
p2564
aVmiami
p2565
aVwet
p2566
aVairline
p2567
aVadapt
p2568
aVexplained
p2569
aVadvance
p2570
aVheading
p2571
aVkerala
p2572
aVtories
p2573
aVreopened
p2574
aVathletes
p2575
aVpacked
p2576
aVestimates
p2577
aVjohns
p2578
aVsept
p2579
aVestimated
p2580
aVdrrpnishank
p2581
aVdenial
p2582
aVcarrying
p2583
aVlanguage
p2584
aVindustries
p2585
aVentering
p2586
aVdisinformation
p2587
aVapplications
p2588
aVslowly
p2589
aVcamps
p2590
aVbirx
p2591
aVeasing
p2592
aVminnesota
p2593
aVsilver
p2594
aVenforcement
p2595
aVpriorities
p2596
aVgods
p2597
aVexposing
p2598
aVrobert
p2599
aVsurveillance
p2600
aVexperiences
p2601
aVdow
p2602
aVsilent
p2603
aVprocedures
p2604
aVpennsylvania
p2605
aVconsumer
p2606
aVnavy
p2607
aVsuggested
p2608
aVtracker
p2609
aVstayhomesavelives
p2610
aVpharma
p2611
aVstrike
p2612
aVoxford
p2613
aVmuslims
p2614
aVconstantly
p2615
aVabortion
p2616
aVmission
p2617
aVfell
p2618
aVnbc
p2619
aVassessment
p2620
aVplants
p2621
aVsocially
p2622
aVexperienced
p2623
aVblames
p2624
aVmaryland
p2625
aVapps
p2626
aValternative
p2627
aVsurvivors
p2628
aV2016
p2629
aV\U0001f449
p2630
aVuae
p2631
aVrequires
p2632
aVrandom
p2633
aVcollection
p2634
aV\U0001f637
p2635
aVeligible
p2636
aVarts
p2637
aVdisruption
p2638
aVcovidaustralia
p2639
aVserving
p2640
aVimplement
p2641
aVjared
p2642
aVhuh
p2643
aVinform
p2644
aVcutting
p2645
aVlawmakers
p2646
aVcontained
p2647
aVmitigate
p2648
aVmemorial
p2649
aVcontacts
p2650
aVreducing
p2651
aVlaugh
p2652
aVsale
p2653
aVrock
p2654
aVve
p2655
aVadds
p2656
aVran
p2657
aVchildrens
p2658
aVsouthern
p2659
aV5000
p2660
aVlived
p2661
aVremind
p2662
aVfloor
p2663
aVnetflix
p2664
aVruined
p2665
aVsmoking
p2666
aVrecommended
p2667
aVindians
p2668
aVdeadline
p2669
aVwealth
p2670
aVcorner
p2671
aVthroat
p2672
aVsuggesting
p2673
aVjack
p2674
aVbidens
p2675
aVmigrants
p2676
aVcommissioner
p2677
aVbrown
p2678
aVmortgage
p2679
aVvaccination
p2680
aVraises
p2681
aVyr
p2682
aVquiet
p2683
aVhotspot
p2684
aVmd
p2685
aVexpress
p2686
aVcrises
p2687
aVaddition
p2688
aVfat
p2689
aVmum
p2690
aV\U0001f97a
p2691
aVpastor
p2692
aVblocked
p2693
aVwage
p2694
aVrescue
p2695
aVmiracle
p2696
aVaoc
p2697
aVthreats
p2698
aVadministrations
p2699
aVnonessential
p2700
aVairports
p2701
aVmar
p2702
aVbeating
p2703
aVimplications
p2704
aVcoach
p2705
aVcombined
p2706
aVaddressing
p2707
aVextends
p2708
aVoutdoor
p2709
aVstandards
p2710
aVlaboratory
p2711
aVsalary
p2712
aVsupported
p2713
aVpcr
p2714
aVwa
p2715
aVconsumers
p2716
aVtravelers
p2717
aVupset
p2718
aVpredict
p2719
aVnoticed
p2720
aVsurrounding
p2721
aVhighlights
p2722
aVtourists
p2723
aVcry
p2724
aVnsw
p2725
aVcabinet
p2726
aVcoronavirusuk
p2727
aVsigning
p2728
aVweight
p2729
aVfilled
p2730
aVoregon
p2731
aVbelieved
p2732
aVenforce
p2733
aVcluster
p2734
aVcat
p2735
aVhancock
p2736
aVconvention
p2737
aVconnect
p2738
aVunique
p2739
aVpath
p2740
aV37
p2741
aVborn
p2742
aVpresidency
p2743
aVpreparedness
p2744
aV20000
p2745
aVsuffered
p2746
aVcoast
p2747
aVball
p2748
aVboston
p2749
aVsat
p2750
aVnah
p2751
aVincredibly
p2752
aVextension
p2753
aValabama
p2754
aVvalley
p2755
aVasthma
p2756
aVoperation
p2757
aVcriticism
p2758
aVcos
p2759
aVaccident
p2760
aVvisited
p2761
aVreckless
p2762
aVcbsnews
p2763
aV\U0001f62d
p2764
aVadviser
p2765
aVimposed
p2766
aVescape
p2767
aVjournalist
p2768
aVdates
p2769
aVusers
p2770
aVdropping
p2771
aVconnection
p2772
aV32
p2773
aVminimum
p2774
aVyrs
p2775
aVadvised
p2776
aVmonitor
p2777
aVisolating
p2778
aVfashion
p2779
aVcarriers
p2780
aVcarrier
p2781
aVnigerians
p2782
aVfeds
p2783
aVnewsom
p2784
aVtravelling
p2785
aVresilience
p2786
aVpeter
p2787
aVstyle
p2788
aVsuccessfully
p2789
aVjapanese
p2790
aVdrops
p2791
aVapplication
p2792
aVproves
p2793
aVprince
p2794
aVmachine
p2795
aVdan
p2796
aVvegas
p2797
aVtweeted
p2798
aVwise
p2799
aV1200
p2800
aVdeserves
p2801
aVsolve
p2802
aVbaseball
p2803
aVages
p2804
aVtypes
p2805
aV100k
p2806
aVfunded
p2807
aVhidden
p2808
aVuncertain
p2809
aVminds
p2810
aVslowing
p2811
aVsake
p2812
aVmovies
p2813
aVbio
p2814
aVemotional
p2815
aVcoronavirusindia
p2816
aVmothers
p2817
aVfinancially
p2818
aVrelationship
p2819
aVfinished
p2820
aVthailand
p2821
aVfires
p2822
aVcrying
p2823
aVkentucky
p2824
aVmohfwindia
p2825
aV150
p2826
aVchecking
p2827
aVft
p2828
aVcats
p2829
aVchristian
p2830
aVresponders
p2831
aVinnocent
p2832
aVkashmir
p2833
aVsmoke
p2834
aVnc
p2835
aVtheyd
p2836
aVdisabled
p2837
aVconfusion
p2838
aVregions
p2839
aVfactory
p2840
aVchronic
p2841
aVcontribute
p2842
aVbout
p2843
aVswab
p2844
aVrequirements
p2845
aVoverseas
p2846
aVjokes
p2847
aVcapitalism
p2848
aVdownplaying
p2849
aVreaching
p2850
aVhang
p2851
aVtaught
p2852
aVjaketapper
p2853
aVscreen
p2854
aVdance
p2855
aV55
p2856
aVimage
p2857
aVinevitable
p2858
aVshuts
p2859
aVdoc
p2860
aVdozens
p2861
aVandor
p2862
aVmadness
p2863
aVford
p2864
aVnih
p2865
aVwing
p2866
aVdashboard
p2867
aVsaudi
p2868
aVavoiding
p2869
aVlimits
p2870
aVreliable
p2871
aVfreaking
p2872
aVbored
p2873
aVshape
p2874
aVcelebrating
p2875
aVchose
p2876
aVexpose
p2877
aVdirection
p2878
aVinvestigate
p2879
aVempathy
p2880
aVheavy
p2881
aVcovids
p2882
aVappeal
p2883
aVrow
p2884
aVmassachusetts
p2885
aVselfisolate
p2886
aVhedge
p2887
aVwheres
p2888
aVpictures
p2889
aVsacrifice
p2890
aVghana
p2891
aVrolling
p2892
aVcomplex
p2893
aVhaha
p2894
aVopposition
p2895
aVhanks
p2896
aVpool
p2897
aVships
p2898
aVnigerian
p2899
aVkushner
p2900
aVthreatening
p2901
aVfools
p2902
aVcrimes
p2903
aVhub
p2904
aVmelbourne
p2905
aVcompleted
p2906
aVhr
p2907
aVstranded
p2908
aVkick
p2909
aVvast
p2910
aVwoke
p2911
aVstayed
p2912
aVfinish
p2913
aV\u2764\ufe0f
p2914
aVlethal
p2915
aVdirty
p2916
aVhungry
p2917
aVnegligence
p2918
aVhotspots
p2919
aVtip
p2920
aVfloyd
p2921
aVwelfare
p2922
aVcharges
p2923
aVexists
p2924
aVdeny
p2925
aVjim
p2926
aVsentence
p2927
aVcanadas
p2928
aVlovely
p2929
aVscottish
p2930
aVgovts
p2931
aVmitch
p2932
aVimplemented
p2933
aVoklahoma
p2934
aVgiant
p2935
aVjoins
p2936
aVintentionally
p2937
aVamitshah
p2938
aVbitcoin
p2939
aVparent
p2940
aVscams
p2941
aVmedicare
p2942
aVbjp
p2943
aVirish
p2944
aVshutdowns
p2945
aVpres
p2946
aVreleasing
p2947
aVdetected
p2948
aVsends
p2949
aVdeclare
p2950
aVhed
p2951
aVspirit
p2952
aVtransmitted
p2953
aVlarger
p2954
aVgyms
p2955
aVcures
p2956
aVchains
p2957
aVcitys
p2958
aVdeliberately
p2959
aVatrupar
p2960
aVnavigate
p2961
aVcancellation
p2962
aVdemanding
p2963
aVqueen
p2964
aVspots
p2965
aVexact
p2966
aVcongratulations
p2967
aVah
p2968
aVfb
p2969
aVcent
p2970
aVguarantee
p2971
aVthrowing
p2972
aVhill
p2973
aV38
p2974
aVtennessee
p2975
aVfile
p2976
aVjones
p2977
aVwishing
p2978
aVpromising
p2979
aVadult
p2980
aV2019ncov
p2981
aVhadnt
p2982
aVpromoting
p2983
aVwore
p2984
aVliverpool
p2985
aValarming
p2986
aVhonor
p2987
aVitalys
p2988
aVruns
p2989
aVguests
p2990
aVcaptain
p2991
aVhosting
p2992
aVmentalhealth
p2993
aVtiny
p2994
aVlaughing
p2995
aVpolitico
p2996
aVprofits
p2997
aVjoy
p2998
aVjoint
p2999
aVgather
p3000
aVads
p3001
aVentertainment
p3002
aVha
p3003
aVbags
p3004
aVlikes
p3005
aVsection
p3006
aVobesity
p3007
aVrealise
p3008
aVadvisory
p3009
aVcapita
p3010
aVmissouri
p3011
aVmuslim
p3012
aVcoverup
p3013
aVffs
p3014
aVphysician
p3015
aVexpand
p3016
aVgroceries
p3017
aVload
p3018
aVhug
p3019
aVdetect
p3020
aVciting
p3021
aVpr
p3022
aVovernight
p3023
aV44
p3024
aVselfquarantine
p3025
aV200k
p3026
aVseeks
p3027
aVgopleader
p3028
aVtransparency
p3029
aVjourney
p3030
aVscrewed
p3031
aVdonates
p3032
aV95
p3033
aVbrands
p3034
aVlouisiana
p3035
aVcriminals
p3036
aVbiological
p3037
aVdroplets
p3038
aVuncle
p3039
aVstrains
p3040
aVdegree
p3041
aVwidely
p3042
aVslams
p3043
aVveterans
p3044
aVcloth
p3045
aVfuel
p3046
aVcommitment
p3047
aVexperimental
p3048
aVseparate
p3049
aVconvinced
p3050
aVsilence
p3051
aVquote
p3052
aVforecast
p3053
aVsuit
p3054
aVcoverings
p3055
aVkarma
p3056
aVmanchester
p3057
aVgopchairwoman
p3058
aVdisproportionately
p3059
aVdepends
p3060
aV247
p3061
aVoutcomes
p3062
aVharvard
p3063
aVanxious
p3064
aVshipping
p3065
aVmelania
p3066
aVdenying
p3067
aVdisagree
p3068
aVutah
p3069
aVlindseygrahamsc
p3070
aVjustintrudeau
p3071
aVclosely
p3072
aV85
p3073
aVnasty
p3074
aVspeaker
p3075
aVcon
p3076
aVballot
p3077
aVreply
p3078
aVmate
p3079
aVdevelopments
p3080
aVseat
p3081
aVsteal
p3082
aVimpacting
p3083
aVcontagion
p3084
aVtbh
p3085
aVhospitality
p3086
aVdeals
p3087
aVdetermine
p3088
aVraw
p3089
aVreferring
p3090
aVpromised
p3091
aVdiscussed
p3092
aVbear
p3093
aVsea
p3094
aVwarriors
p3095
aVproduced
p3096
aVjoining
p3097
aVopposite
p3098
aVstreaming
p3099
aVrealjameswoods
p3100
aVma
p3101
aVhiring
p3102
aVplays
p3103
aVhospitalization
p3104
aVforgotten
p3105
aVchair
p3106
aVleaked
p3107
aVcaution
p3108
aVcourts
p3109
aVcandidates
p3110
aVfiled
p3111
aVroutine
p3112
aVblind
p3113
aVct
p3114
aVadvise
p3115
aVtransition
p3116
aVvictory
p3117
aVindiana
p3118
aVgerms
p3119
aVbooked
p3120
aVabbott
p3121
aVmalaysia
p3122
aVfatal
p3123
aVguest
p3124
aVdallas
p3125
aV1918
p3126
aVmetro
p3127
aVsuppose
p3128
aV41
p3129
aVrely
p3130
aVenvironmental
p3131
aVcompliance
p3132
aVcup
p3133
aVfindings
p3134
aVfrancisco
p3135
aVapplied
p3136
aVrepeat
p3137
aVtroops
p3138
aVbroadcast
p3139
aV42
p3140
aVauthor
p3141
aVnet
p3142
aVcharles
p3143
aVrequests
p3144
aVsc
p3145
aVpopulations
p3146
aVmodern
p3147
aVcounter
p3148
aVrealized
p3149
aVfbi
p3150
aV5th
p3151
aVfemale
p3152
aVsurgical
p3153
aVodds
p3154
aVcannabis
p3155
aVivankatrump
p3156
aVsurviving
p3157
aVequal
p3158
aVdrtedros
p3159
aVdecrease
p3160
aVconstant
p3161
aVactively
p3162
aVgrandma
p3163
aVtier
p3164
aVprocessing
p3165
aVprotections
p3166
aVpure
p3167
aVtragedy
p3168
aVwomens
p3169
aVstephen
p3170
aVinequality
p3171
aVskin
p3172
aVtx
p3173
aVguns
p3174
aVstatements
p3175
aVtypical
p3176
aVchicken
p3177
aV\u27a1\ufe0f
p3178
aVjobless
p3179
aVflattenthecurve
p3180
aVburning
p3181
aVswear
p3182
aVrestart
p3183
aVcorporations
p3184
aVbolsonaro
p3185
aVsemester
p3186
aVdestruction
p3187
aVbrave
p3188
aVdistraction
p3189
aVbag
p3190
aVgtgt
p3191
aVpub
p3192
aVsuck
p3193
aVtrash
p3194
aVbloody
p3195
aVwars
p3196
aVfitness
p3197
aVpostcovid19
p3198
aV72
p3199
aVsuperspreader
p3200
aVbehaviour
p3201
aVtransfer
p3202
aVprogramme
p3203
aVemerge
p3204
aVcollective
p3205
aVexpecting
p3206
aVpets
p3207
aVcomplaining
p3208
aVretirement
p3209
aVcards
p3210
aVdry
p3211
aVagents
p3212
aVfocusing
p3213
aVattacking
p3214
aVboom
p3215
aVwhatsapp
p3216
aVvillage
p3217
aVjr
p3218
aVchrist
p3219
aVreasonable
p3220
aVholidays
p3221
aVsweet
p3222
aVflat
p3223
aVmedication
p3224
aVsteve
p3225
aVpartnership
p3226
aVclue
p3227
aVdistract
p3228
aVwuhanvirus
p3229
aVshameful
p3230
aVfourth
p3231
aVgraph
p3232
aVinsight
p3233
aVmorons
p3234
aVtrusted
p3235
aVsingleday
p3236
aVshocked
p3237
aVarvindkejriwal
p3238
aVreligion
p3239
aVshake
p3240
aVpulled
p3241
aVdivision
p3242
aVsummary
p3243
aValberta
p3244
aVdefend
p3245
aVsoul
p3246
aVplastic
p3247
aVhouseholds
p3248
aVshoot
p3249
aVbirth
p3250
aVspin
p3251
aVratings
p3252
aVwishes
p3253
aVinflated
p3254
aVherman
p3255
aVquarantinelife
p3256
aVcovid19pandemic
p3257
aVpack
p3258
aVdiscover
p3259
aVoutcome
p3260
aVcain
p3261
aVsight
p3262
aVrecording
p3263
aVdriven
p3264
aVstable
p3265
aVoccurred
p3266
aVpassenger
p3267
aVisraeli
p3268
aVgarbage
p3269
aVwhove
p3270
aVdownplayed
p3271
aVpurchase
p3272
aVrelatives
p3273
aVrichard
p3274
aVpublicly
p3275
aVtitle
p3276
aVestimate
p3277
aVcharliekirk11
p3278
aVtragic
p3279
aVaffairs
p3280
aVpause
p3281
aVdisgrace
p3282
aVmistakes
p3283
aV\U0001f974
p3284
aVloves
p3285
aVel
p3286
aVcoronavirususa
p3287
aVparking
p3288
aVdining
p3289
aVtransportation
p3290
aVcompassion
p3291
aVhubei
p3292
aVcollaboration
p3293
aVclown
p3294
aVhistoric
p3295
aVthankful
p3296
aVdelivering
p3297
aVsurges
p3298
aVdetention
p3299
aVhurting
p3300
aVcharities
p3301
aVmagic
p3302
aVfrequently
p3303
aVunits
p3304
aVanswered
p3305
aVdnc
p3306
aVbuildings
p3307
aVreduction
p3308
aVbarr
p3309
aVfeelings
p3310
aVelonmusk
p3311
aVurging
p3312
aVcreates
p3313
aVms
p3314
aVqanon
p3315
aVcontrolling
p3316
aVblocking
p3317
aVsympathy
p3318
aVprevented
p3319
aVkim
p3320
aVcharts
p3321
aVrequiring
p3322
aVpermanently
p3323
aVroyal
p3324
aVparticipate
p3325
aVstayhomestaysafe
p3326
aVroughly
p3327
aVpeaceful
p3328
aVem
p3329
aVfyi
p3330
aVkorean
p3331
aVassuming
p3332
aVva
p3333
aVconferences
p3334
aVfakenews
p3335
aVoperate
p3336
aVjournalism
p3337
aVdeputy
p3338
aVindonesia
p3339
aVbright
p3340
aVmentally
p3341
aVcoronaviruses
p3342
aVdakota
p3343
aVdeeply
p3344
aVexplore
p3345
aVdoxie53
p3346
aVprefer
p3347
aVdare
p3348
aVtowns
p3349
aVsituations
p3350
aVreopens
p3351
aVnewly
p3352
aVpraise
p3353
aVsusceptible
p3354
aVseverely
p3355
aVapproves
p3356
aVshooting
p3357
aVcycle
p3358
aVpledge
p3359
aVresponded
p3360
aVmin
p3361
aVincreasingly
p3362
aVpushes
p3363
aVdoses
p3364
aVgap
p3365
aVbid
p3366
aVnotes
p3367
aVaggressive
p3368
aVanger
p3369
aVchairman
p3370
aVcovidrelated
p3371
aVacademic
p3372
aVolympics
p3373
aVtiktok
p3374
aVworship
p3375
aVodd
p3376
aVed
p3377
aVstem
p3378
aVcooperation
p3379
aVshots
p3380
aVstays
p3381
aVlayoffs
p3382
aVhillaryclinton
p3383
aVlas
p3384
aVartist
p3385
aVfarm
p3386
aVatlanta
p3387
aVron
p3388
aVgrim
p3389
aVretailers
p3390
aVresulting
p3391
aVensuring
p3392
aVfordnation
p3393
aVtelehealth
p3394
aVphysically
p3395
aVlee
p3396
aVacute
p3397
aVdinner
p3398
aVwo
p3399
aVperfectly
p3400
aVdreams
p3401
aVurban
p3402
aVdocument
p3403
aVfeaturing
p3404
aVsanders
p3405
aVsectors
p3406
aVfurlough
p3407
aVjohnsons
p3408
aVtransit
p3409
aVagreement
p3410
aVgenius
p3411
aVexplanation
p3412
aVtops
p3413
aVwages
p3414
aVcloud
p3415
aVmixed
p3416
aVphysicians
p3417
aVplandemic
p3418
aVyorkers
p3419
aVepidemiologist
p3420
aVflag
p3421
aVhrs
p3422
aVorganisation
p3423
aVlooting
p3424
aVtaxpayers
p3425
aVminority
p3426
aVbarackobama
p3427
aVmayors
p3428
aVwealthy
p3429
aV56
p3430
aVemployer
p3431
aVintroduced
p3432
aVcompetition
p3433
aVgender
p3434
aVmessaging
p3435
aVhillary
p3436
aVdonors
p3437
aVdangers
p3438
aVgrandparents
p3439
aVcelebrities
p3440
aVatlantic
p3441
aVnewsletter
p3442
aVlake
p3443
aVaz
p3444
aVimo
p3445
aVgtconway3d
p3446
aVindigenous
p3447
aVgovmikedewine
p3448
aV94
p3449
aVarrive
p3450
aVaustralias
p3451
aVbrothers
p3452
aVargue
p3453
aVhai
p3454
aVdrs
p3455
aVrefugees
p3456
aVpissed
p3457
aVacceptable
p3458
aVtrips
p3459
aVballots
p3460
aVps
p3461
aVselfisolating
p3462
aVgrab
p3463
aVchoices
p3464
aVdna
p3465
aVproved
p3466
aVsample
p3467
aVtackling
p3468
aVdistributed
p3469
aVutter
p3470
aVberniesanders
p3471
aVexpensive
p3472
aVgp
p3473
aVparis
p3474
aVchest
p3475
aVnicolasturgeon
p3476
aVwipe
p3477
aVfails
p3478
aVtf
p3479
aVslightly
p3480
aVyea
p3481
aVsustainable
p3482
aVdisastrous
p3483
aVpet
p3484
aV39
p3485
aVfatigue
p3486
aVcoincidence
p3487
aVlistened
p3488
aVequity
p3489
aVtraditional
p3490
aVpapers
p3491
aVdbongino
p3492
aVsenategop
p3493
aVactor
p3494
aVwashyourhands
p3495
aVstressed
p3496
aVadmissions
p3497
aVinquiry
p3498
aVtargeted
p3499
aVamy
p3500
aVbloomberg
p3501
aVburn
p3502
aVjustin
p3503
aVlibrary
p3504
aVinvest
p3505
aVbail
p3506
aVruin
p3507
aVmid
p3508
aVgross
p3509
aVmeal
p3510
aVweb
p3511
aVwildlife
p3512
aVmoms
p3513
aVprecautionary
p3514
aVdetroit
p3515
aVencouraged
p3516
aVunbelievable
p3517
aVcrossed
p3518
aVstroke
p3519
aVerictrump
p3520
aVcollect
p3521
aVkarnataka
p3522
aVdebates
p3523
aVrampant
p3524
aVbreakdown
p3525
aV47
p3526
aVprotestors
p3527
aVfoods
p3528
aVlunch
p3529
aVmale
p3530
aV43
p3531
aVse
p3532
aVdecade
p3533
aVni
p3534
aVattacked
p3535
aVsec
p3536
aVdire
p3537
aVsymptomatic
p3538
aVreplace
p3539
aV800
p3540
aVtrains
p3541
aVdivide
p3542
aVstations
p3543
aVinternal
p3544
aVattitude
p3545
aVgmb
p3546
aVoutdoors
p3547
aVkatibug817
p3548
aVhhs
p3549
aVcybersecurity
p3550
aVfavor
p3551
aVaudience
p3552
aVregistration
p3553
aVrelax
p3554
aVdeficit
p3555
aVhurricane
p3556
aVgrade
p3557
aVshaking
p3558
aVhole
p3559
aVcautious
p3560
aVsurvivor
p3561
aVremaining
p3562
aVteamtrump
p3563
aVacted
p3564
aValex
p3565
aVbelieving
p3566
aVgovwhitmer
p3567
aVmicrosoft
p3568
aVtopics
p3569
aVcomprehensive
p3570
aV30000
p3571
aVtrump2020
p3572
aVbasketball
p3573
aVprecaution
p3574
aVbooking
p3575
aVwine
p3576
aVgenuinely
p3577
aV46
p3578
aVreflect
p3579
aVorganisations
p3580
aVfoot
p3581
aVdisappointed
p3582
aVii
p3583
aVbelgium
p3584
aVgranted
p3585
aVtil
p3586
aVacts
p3587
aVfix8d2020
p3588
aVbenshapiro
p3589
aV250
p3590
aVasshole
p3591
aVvalid
p3592
aVstadium
p3593
aVliberty
p3594
aVcovid19sa
p3595
aVstrongly
p3596
aVfights
p3597
aVheartbreaking
p3598
aV700
p3599
aVncdc
p3600
aVtedcruz
p3601
aVloses
p3602
aVuganda
p3603
aVhows
p3604
aVclassroom
p3605
aVachieve
p3606
aVshield
p3607
aVlay
p3608
aVdose
p3609
aVcousin
p3610
aVfunction
p3611
aVfriendly
p3612
aVga
p3613
aVterrifying
p3614
aVstars
p3615
aVfixed
p3616
aVtravellers
p3617
aVgreece
p3618
aVmeds
p3619
aVfingers
p3620
aVcatastrophe
p3621
aVusps
p3622
aVstartups
p3623
aVstruggles
p3624
aVhealing
p3625
aVcourses
p3626
aVswitch
p3627
aVgmt
p3628
aVaffordable
p3629
aVdrharshvardhan
p3630
aV40000
p3631
aVmaintaining
p3632
aValexberenson
p3633
aVwhistleblower
p3634
aVzinc
p3635
aVcentury
p3636
aVmax
p3637
aVreact
p3638
aVrepeatedly
p3639
aVmix
p3640
aVoutlook
p3641
aVsheep
p3642
aVlifting
p3643
aVpulte
p3644
aVanytime
p3645
aVsinging
p3646
aV4000
p3647
aVheal
p3648
aVgains
p3649
aVjohncornyn
p3650
aVrahulgandhi
p3651
aVtheme
p3652
aVtied
p3653
aVcarried
p3654
aVdesperately
p3655
aVpretending
p3656
aVwfh
p3657
aVtoxic
p3658
aVsanta
p3659
aV2017
p3660
aVfee
p3661
aVpackages
p3662
aVexperiment
p3663
aVmollyjongfast
p3664
aVcouldve
p3665
aVplanes
p3666
aVhollywood
p3667
aVpreventive
p3668
aVchrislhayes
p3669
aVextent
p3670
aVdisabilities
p3671
aVconducting
p3672
aVauto
p3673
aVpractical
p3674
aVcancelling
p3675
aVthreatened
p3676
aVenjoying
p3677
aVpolitician
p3678
aVmethod
p3679
aVrelative
p3680
aVwarm
p3681
aVtruck
p3682
aVallegedly
p3683
aVndtv
p3684
aVlasting
p3685
aVburden
p3686
aVpic
p3687
aVbob
p3688
aVmode
p3689
aVblacklivesmatter
p3690
aVtimely
p3691
aVunity
p3692
aVnetworks
p3693
aVstruck
p3694
aVdetailed
p3695
aVworkfromhome
p3696
aVcast
p3697
aVapprove
p3698
aVmandates
p3699
aVlocolopeznyc
p3700
aVwhitmer
p3701
aVfamous
p3702
aVsickness
p3703
aVattributed
p3704
aVsoar
p3705
aVpracticing
p3706
aVchildcare
p3707
aVlawsuit
p3708
aVstating
p3709
aVafricans
p3710
aVpicked
p3711
aVdementia
p3712
aVeliminate
p3713
aVterrified
p3714
aVkidding
p3715
aVheaded
p3716
aVplot
p3717
aVeducational
p3718
aVsurging
p3719
aVproposed
p3720
aVreserve
p3721
aVmainstream
p3722
aVoverwhelming
p3723
aVthrown
p3724
aVesp
p3725
aVconfident
p3726
aVvirology
p3727
aVpredictions
p3728
aVbame
p3729
aValbum
p3730
aVbegun
p3731
aVallergies
p3732
aVmemes
p3733
aVsoftware
p3734
aVcolumn
p3735
aVinfluence
p3736
aVjustify
p3737
aViranian
p3738
aV1500
p3739
aVdey
p3740
aVforum
p3741
aVrespected
p3742
aVkhan
p3743
aVsalute
p3744
aVreference
p3745
aVseriousness
p3746
aVfought
p3747
aVpromises
p3748
aVnevada
p3749
aVdraw
p3750
aVstone
p3751
aVarmed
p3752
aVinitially
p3753
aVindefinitely
p3754
aVsurpass
p3755
aVstudying
p3756
aVsilly
p3757
aVfines
p3758
aVsurprising
p3759
aVcriteria
p3760
aVflattening
p3761
aVneet
p3762
aVexchange
p3763
aVgovmurphy
p3764
aVimages
p3765
aVsupermarket
p3766
aVneighborhood
p3767
aVstrikes
p3768
aVloose
p3769
aVncdcgov
p3770
aVstartup
p3771
aVscandal
p3772
aVhawaii
p3773
aVcomputer
p3774
aVmaterials
p3775
aVfaculty
p3776
aVedge
p3777
aVhumanitarian
p3778
aVtiming
p3779
aVquarantines
p3780
aVmedicines
p3781
aVmemory
p3782
aVhorror
p3783
aVrealcandaceo
p3784
aVcomplain
p3785
aVtucker
p3786
aVdecent
p3787
aVprovinces
p3788
aVhosted
p3789
aVquarantining
p3790
aVpoorly
p3791
aVdocuments
p3792
aVkaren
p3793
aVinvesting
p3794
aVrecovers
p3795
aVmorrison
p3796
aVexplaining
p3797
aVfiscal
p3798
aVfallen
p3799
aVcc
p3800
aVvisa
p3801
aVrecognize
p3802
aVnative
p3803
aVwards
p3804
aVchriscuomo
p3805
aVcertificates
p3806
aVhype
p3807
aVopinions
p3808
aVcontributing
p3809
aVband
p3810
aV\U0001f923
p3811
aVaccepting
p3812
aVspeedy
p3813
aVattorney
p3814
aVhurts
p3815
aVcute
p3816
aVbanking
p3817
aVsurpasses
p3818
aVbihar
p3819
aVbankruptcy
p3820
aVmoral
p3821
aVcontribution
p3822
aVblasio
p3823
aVsolid
p3824
aVmitigation
p3825
aVdisability
p3826
aVeconomist
p3827
aVjails
p3828
aVmismanagement
p3829
aVmaterial
p3830
aVconstitution
p3831
aVplatforms
p3832
aVapartment
p3833
aVevictions
p3834
aVaim
p3835
aVsessions
p3836
aVcontributed
p3837
aVsmile
p3838
aVreminds
p3839
aVnumerous
p3840
aVaccidents
p3841
aVpredicts
p3842
aVrethink
p3843
aVnetherlands
p3844
aVcdnpoli
p3845
aVmongering
p3846
aVdetermined
p3847
aVviolating
p3848
aVsharp
p3849
aVbillgates
p3850
aVriver
p3851
aVfeature
p3852
aVtreasury
p3853
aVkansas
p3854
aVcomorbidities
p3855
aVshout
p3856
aV\U0001f1fa\U0001f1f8
p3857
aVurgently
p3858
aV51
p3859
aVappreciated
p3860
aVoptimistic
p3861
aVlysol
p3862
aVsanctions
p3863
aVmagically
p3864
aVlining
p3865
aVinject
p3866
aVprediction
p3867
aVcovidiot
p3868
aVcook
p3869
aVchinesevirus
p3870
aVexposes
p3871
aV52
p3872
aVinstructions
p3873
aVhundred
p3874
aVresulted
p3875
aV57
p3876
aVclimb
p3877
aVchinavirus
p3878
aVpatience
p3879
aVkayleighmcenany
p3880
aVacknowledge
p3881
aVda
p3882
aVspiking
p3883
aVpsa
p3884
aV10downingstreet
p3885
aVearn
p3886
aVuber
p3887
aVqampa
p3888
aVodisha
p3889
aVcomply
p3890
aVdoh
p3891
aVkiss
p3892
aVhypocrisy
p3893
aVyup
p3894
aVtea
p3895
aVnycmayor
p3896
aVscreaming
p3897
aVeastern
p3898
aVrisky
p3899
aVmonthly
p3900
aVeconomics
p3901
aVemerged
p3902
aVminimize
p3903
aVresist
p3904
aVgay
p3905
aVcompromised
p3906
aVfr
p3907
aVblessing
p3908
aVaustralians
p3909
aVconvince
p3910
aVmarried
p3911
aVmercy
p3912
aVsquare
p3913
aVmarks
p3914
aVgreatly
p3915
aVconfirmation
p3916
aVearnings
p3917
aVadequate
p3918
aVinterviews
p3919
aVclinics
p3920
aVdramatic
p3921
aVfg
p3922
aVgoals
p3923
aVmurdered
p3924
aVblessed
p3925
aVworn
p3926
aVdiamond
p3927
aVbanning
p3928
aVmagazine
p3929
aVmitchellvii
p3930
aVben
p3931
aVmurphy
p3932
aVvirologist
p3933
aVun
p3934
aVphones
p3935
aVfrontlines
p3936
aVpatent
p3937
aVloving
p3938
aVimpose
p3939
aVvaluable
p3940
aVpolling
p3941
aVclothes
p3942
aV01
p3943
aVappointments
p3944
aVcommunications
p3945
aVhabits
p3946
aVdealt
p3947
aVlegit
p3948
aVfloridas
p3949
aVmaine
p3950
aVconcerts
p3951
aV60000
p3952
aVrefer
p3953
aVshifts
p3954
aVmount
p3955
aVsurgeon
p3956
aVroads
p3957
aVresurgence
p3958
aV500000
p3959
aVsubmit
p3960
aVextraordinary
p3961
aVrestricted
p3962
aVcoz
p3963
aVcomfortable
p3964
aVcovers
p3965
aVvision
p3966
aVavoided
p3967
aVinjury
p3968
aVrough
p3969
aVflow
p3970
aVmishandling
p3971
aVadvanced
p3972
aVproactive
p3973
aVblacks
p3974
aVheavily
p3975
aVscottmorrisonmp
p3976
aVtim
p3977
aVsexual
p3978
aVentered
p3979
aViraq
p3980
aVdraft
p3981
aVfactories
p3982
aVcancellations
p3983
aVattempts
p3984
aVcrore
p3985
aVzones
p3986
aVowned
p3987
aVnick
p3988
aVbackground
p3989
aV74
p3990
aVoutlets
p3991
aVups
p3992
aVinept
p3993
aVreform
p3994
aVgrows
p3995
aVdozen
p3996
aVparade
p3997
aVtons
p3998
aVtraveled
p3999
aVfeeding
p4000
aVdetail
p4001
aVexit
p4002
aVcombating
p4003
aVdec
p4004
aVbrian
p4005
aVdelta
p4006
aVbreakingnews
p4007
aVexpertise
p4008
aVlimiting
p4009
aVwordsdawn
p4010
aVantiviral
p4011
aVerror
p4012
aV66
p4013
aVvolume
p4014
aVintervention
p4015
aVandy
p4016
aVperform
p4017
aVmi
p4018
aVinvisible
p4019
aVkylegriffin1
p4020
aVplumptytrumpty
p4021
aVlbc
p4022
aVkindness
p4023
aVviolent
p4024
aVtenants
p4025
aVcorrectly
p4026
aVvalues
p4027
aVmmpadellan
p4028
aVons
p4029
aVbuhari
p4030
aVvoices
p4031
aVbillionaires
p4032
aVpainful
p4033
aVtn
p4034
aVperformed
p4035
aVelite
p4036
aVgujarat
p4037
aVtheaters
p4038
aVannouncing
p4039
aVsisters
p4040
aValot
p4041
aVhanging
p4042
aVhighlight
p4043
aVsupposedly
p4044
aVproving
p4045
aVdiscrimination
p4046
aVdepartments
p4047
aVarrival
p4048
aVunite
p4049
aVcoworkers
p4050
aVcountys
p4051
aVcared
p4052
aVmasses
p4053
aVtag
p4054
aVkevin
p4055
aVsettings
p4056
aVsocialist
p4057
aVdiego
p4058
aVconsistent
p4059
aVbangladesh
p4060
aVtuckercarlson
p4061
aVpicking
p4062
aVcrisn3wy
p4063
aVbeauty
p4064
aVliability
p4065
aVkamala
p4066
aVinaction
p4067
aVugly
p4068
aVrand
p4069
aVfutures
p4070
aVrequested
p4071
aVexamples
p4072
aVbuses
p4073
aVdominic
p4074
aVbother
p4075
aVaccepted
p4076
aV49
p4077
aVparticles
p4078
aVunrest
p4079
aVinnovative
p4080
aVcleared
p4081
aVpresence
p4082
aVprojected
p4083
aVego
p4084
aVsummit
p4085
aVsuspension
p4086
aVuni
p4087
aVguilty
p4088
aVmiller
p4089
aVpos
p4090
aVshitty
p4091
aVpulling
p4092
aVcrossing
p4093
aVnationals
p4094
aVkicked
p4095
aVfuckin
p4096
aVbike
p4097
aVcooking
p4098
aVarguing
p4099
aVflood
p4100
aVfalsely
p4101
aVprint
p4102
aVtears
p4103
aVnepal
p4104
aVvenues
p4105
aVaviation
p4106
aVconstituents
p4107
aVcyber
p4108
aVeh
p4109
aVestablished
p4110
aVwind
p4111
aVaustin
p4112
aVrisen
p4113
aVmarcorubio
p4114
aVbruh
p4115
aVdisappeared
p4116
aVblocks
p4117
aVsydney
p4118
aVdubai
p4119
aVwoodward
p4120
aV78
p4121
aVmoments
p4122
aVppp
p4123
aVluxury
p4124
aVregard
p4125
aVtelangana
p4126
aVserved
p4127
aVtony
p4128
aVhardship
p4129
aVpending
p4130
aVcatastrophic
p4131
aVirs
p4132
aVcore
p4133
aVcombination
p4134
aVbioweapon
p4135
aVneighbor
p4136
aVcapable
p4137
aVaunt
p4138
aVadam
p4139
aVsavings
p4140
aVmed
p4141
aVtransmit
p4142
aVhosts
p4143
aVest
p4144
aVpunjab
p4145
aVadmission
p4146
aVclinton
p4147
aVcoronaviruslockdown
p4148
aVtournament
p4149
aVirony
p4150
aVugh
p4151
aVstepping
p4152
aVpublichealth
p4153
aVneighbours
p4154
aVukraine
p4155
aVproposal
p4156
aVscene
p4157
aVdramatically
p4158
aVscrew
p4159
aVqualify
p4160
aVoutrage
p4161
aVport
p4162
aVsneeze
p4163
aVcolleague
p4164
aVeviction
p4165
aVinvited
p4166
aVfish
p4167
aVaward
p4168
aVlandlords
p4169
aVbreitbartnews
p4170
aVcnnbrk
p4171
aVhomelessness
p4172
aVoriginally
p4173
aVbye
p4174
aVemployed
p4175
aVmcdonalds
p4176
aVpace
p4177
aVdisturbing
p4178
aVdocs
p4179
aVfolk
p4180
aVgenocide
p4181
aVjumped
p4182
aVexpects
p4183
aVappeared
p4184
aVfacemask
p4185
aVcoronalockdown
p4186
aVentertain
p4187
aVdjangomydog
p4188
aV2008
p4189
aVlocally
p4190
aVspare
p4191
aVaf
p4192
aVeffectiveness
p4193
aVpartisan
p4194
aVmainland
p4195
aVvehicle
p4196
aVsecondary
p4197
aVreed
p4198
aVani
p4199
aVchill
p4200
aVadvertising
p4201
aVle
p4202
aVjee
p4203
aVecommerce
p4204
aVrioting
p4205
aVfascinating
p4206
aV54
p4207
aVkelly
p4208
aVpreparation
p4209
aVstigma
p4210
aVintended
p4211
aV120
p4212
aVgrave
p4213
aVslowed
p4214
aVforms
p4215
aVspecialist
p4216
aVprojections
p4217
aVrhetoric
p4218
aVhire
p4219
aVbias
p4220
aVbounties
p4221
aVsupporter
p4222
aVinformative
p4223
aVfeatures
p4224
aVnights
p4225
aVprofile
p4226
aVwellness
p4227
aVfounder
p4228
aVfundraising
p4229
aVuh
p4230
aVassembly
p4231
aVpays
p4232
aVshouldve
p4233
aVmers
p4234
aVindustrial
p4235
aVdisruptions
p4236
aV\U0001f614
p4237
aVamendment
p4238
aVsupermarkets
p4239
aVcruel
p4240
aVrolls
p4241
aVnervous
p4242
aVlifesaving
p4243
aVgraduation
p4244
aVrecommends
p4245
aVbrutality
p4246
aVspray
p4247
aVempower
p4248
aVtelegraph
p4249
aVarriving
p4250
aVdistribute
p4251
aVkingdom
p4252
aVinjecting
p4253
aVmanufacturers
p4254
aVrelation
p4255
aVbritains
p4256
aVnewspaper
p4257
aVdrastic
p4258
aVloud
p4259
aVharmful
p4260
aVsuicides
p4261
aVapocalypse
p4262
aVparticipants
p4263
aVbengal
p4264
aVminorities
p4265
aValright
p4266
aVgrief
p4267
aVtb
p4268
aVutterly
p4269
aVaimed
p4270
aVunacceptable
p4271
aVeric
p4272
aVscotus
p4273
aVinspired
p4274
aVdanielandrewsmp
p4275
aVvariety
p4276
aVwipes
p4277
aVaide
p4278
aVtribute
p4279
aVwasted
p4280
aVimported
p4281
aVrain
p4282
aVwalter
p4283
aVwarehouse
p4284
aVwindows
p4285
aVtrauma
p4286
aVaircraft
p4287
aVcoaches
p4288
aVminor
p4289
aVhilarious
p4290
aVtherickwilson
p4291
aVwisdom
p4292
aVselfreporting
p4293
aVoann
p4294
aVmaggienyt
p4295
aVadapting
p4296
aVen
p4297
aVpleased
p4298
aVprovincial
p4299
aVunfortunate
p4300
aVinvite
p4301
aVcongrats
p4302
aVresilient
p4303
aVgoodbye
p4304
aVdrericding
p4305
aVextending
p4306
aVadvisor
p4307
aVcultural
p4308
aVpolitically
p4309
aVdelaying
p4310
aVdrama
p4311
aVfinances
p4312
aVarkansas
p4313
aVwinner
p4314
aVshelves
p4315
aVtrained
p4316
aVexpenses
p4317
aVexpanded
p4318
aVaccelerate
p4319
aVcredibility
p4320
aVeditorial
p4321
aVdeclaration
p4322
aVrefunds
p4323
aVentitled
p4324
aVmakers
p4325
aVruining
p4326
aVstages
p4327
aVbts
p4328
aVmilk
p4329
aVapr
p4330
aVattendees
p4331
aVtape
p4332
aVchannels
p4333
aVnecessarily
p4334
aVwilson
p4335
aVbuddy
p4336
aVgrip
p4337
aVlt
p4338
aVunions
p4339
aVdrunk
p4340
aV1000s
p4341
aVcontaminated
p4342
aVarabia
p4343
aVkeirstarmer
p4344
aVcelebration
p4345
aV6000
p4346
aVagent
p4347
aVdiagnostic
p4348
aV98
p4349
aVsystemic
p4350
aVdonaldtrump
p4351
aVdoubled
p4352
aVreset
p4353
aVnuts
p4354
aVshed
p4355
aVfema
p4356
aVgreed
p4357
aVsuggestions
p4358
aVdepend
p4359
aV10k
p4360
aVdifferences
p4361
aVmemo
p4362
aVprotects
p4363
aVnonprofits
p4364
aVapologize
p4365
aVdefinition
p4366
aVessentially
p4367
aVsocialism
p4368
aVdownturn
p4369
aVcategory
p4370
aVjeff
p4371
aV\u2066realdonaldtrump\u2069
p4372
aVultimately
p4373
aVsink
p4374
aVveteran
p4375
aVepic
p4376
aVbankrupt
p4377
aV67
p4378
aVirans
p4379
aVregret
p4380
aVdocumentary
p4381
aVquestioning
p4382
aVjackposobiec
p4383
aVconcept
p4384
aVsleeping
p4385
aVashamed
p4386
aVaddressed
p4387
aVdick
p4388
aVlazy
p4389
aVfacemasks
p4390
aVlatin
p4391
aVdrivethru
p4392
aV150000
p4393
aVwalked
p4394
aVbehalf
p4395
aVschumer
p4396
aVwarren
p4397
aVwolf
p4398
aVriot
p4399
aVbiotech
p4400
aVaims
p4401
aVconsumption
p4402
aVshields
p4403
aVdaniel
p4404
aVradical
p4405
aVallies
p4406
aVcape
p4407
aVengage
p4408
aVbrooklyn
p4409
aVprivilege
p4410
aVdisplay
p4411
aVthankfully
p4412
aVshoppers
p4413
aVmood
p4414
aVimproving
p4415
aVawaiting
p4416
aVchancellor
p4417
aVstrategic
p4418
aVsurpassed
p4419
aVfeatured
p4420
aVtactics
p4421
aVresearcher
p4422
aVinvestigating
p4423
aVchuck
p4424
aVtransformation
p4425
aVpayroll
p4426
aVproductive
p4427
aVtesla
p4428
aVoccur
p4429
aVtaxpayer
p4430
aVbonus
p4431
aVdiet
p4432
aVmanagers
p4433
aVpride
p4434
aVdeadlier
p4435
aVglass
p4436
aVorigins
p4437
aVattendance
p4438
aVracing
p4439
aVapproaches
p4440
aVresistance
p4441
aVhunt
p4442
aVweapons
p4443
aVmeme
p4444
aVbare
p4445
aVemissions
p4446
aVcatholic
p4447
aV7th
p4448
aV15th
p4449
aVhandwashing
p4450
aVmessed
p4451
aVbacteria
p4452
aVbranch
p4453
aV6th
p4454
aVaccuses
p4455
aVnhl
p4456
aVafghanistan
p4457
aVopposed
p4458
aVdisregard
p4459
aVhopeful
p4460
aVadopt
p4461
aVstood
p4462
aVcontroversial
p4463
aVoped
p4464
aVpharmacy
p4465
aV10th
p4466
aVoversight
p4467
aVhearts
p4468
aV53
p4469
aV2015
p4470
aVexponential
p4471
aVhmm
p4472
aVpt
p4473
aVselfemployed
p4474
aVeducated
p4475
aVwaited
p4476
aVgovernance
p4477
aVknowingly
p4478
aVsore
p4479
aVhalted
p4480
aVcommit
p4481
aVlawyers
p4482
aVdoubling
p4483
aVmins
p4484
aVbbcworld
p4485
aVsurface
p4486
aVyorks
p4487
aVaddresses
p4488
aVeuropes
p4489
aVexistence
p4490
aVtheatre
p4491
aVchristians
p4492
aVsuspending
p4493
aVincubation
p4494
aVtourist
p4495
aVgenetic
p4496
aVcapitol
p4497
aVprobable
p4498
aVwears
p4499
aVsalon
p4500
aVsuggestion
p4501
aVmailin
p4502
aVsons
p4503
aVconfusing
p4504
aVstressful
p4505
aVbreakthrough
p4506
aVunproven
p4507
aVdefending
p4508
aVinteractive
p4509
aVcomplicated
p4510
aVmary
p4511
aVbacklash
p4512
aVaccountability
p4513
aVted
p4514
aVbible
p4515
aV900
p4516
aVunexpected
p4517
aVpieces
p4518
aVmississippi
p4519
aVsean
p4520
aVrishisunak
p4521
aVrelations
p4522
aVdevice
p4523
aVstealing
p4524
aVring
p4525
aVc19
p4526
aVsomeones
p4527
aValleged
p4528
aVnavigating
p4529
aVbridge
p4530
aVshell
p4531
aVkano
p4532
aVquebec
p4533
aVboat
p4534
aV000
p4535
aVpork
p4536
aVdownplay
p4537
aVsri
p4538
aVeffected
p4539
aVafricas
p4540
aVassault
p4541
aVthomas
p4542
aVlivelihoods
p4543
aVtiger
p4544
aVreelected
p4545
aVrona
p4546
aVinitiatives
p4547
aVlights
p4548
aVabcnews
p4549
aVcomedy
p4550
aVmethods
p4551
aVconnecticut
p4552
aVbegging
p4553
aVgilead
p4554
aVcongressional
p4555
aVadjust
p4556
aVtargets
p4557
aVtargeting
p4558
aVterrorist
p4559
aVexponentially
p4560
aVlawsuits
p4561
aVporn
p4562
aVcmomaharashtra
p4563
aVag
p4564
aVmonster
p4565
aVcontrols
p4566
aVcamera
p4567
aVsmith
p4568
aVcuomos
p4569
aVintroduce
p4570
aVpostal
p4571
aVlawyer
p4572
aVcdcs
p4573
aVimf
p4574
aVswitzerland
p4575
aVantifa
p4576
aVresort
p4577
aVuv
p4578
aVpradesh
p4579
aVclusters
p4580
aVretired
p4581
aVthrive
p4582
aVstanford
p4583
aValyssamilano
p4584
aVindex
p4585
aVseasons
p4586
aVequally
p4587
aVkenyans
p4588
aVcap
p4589
aVdisinfectants
p4590
aVscenes
p4591
aVannoying
p4592
aVko
p4593
aVtrapped
p4594
aVegypt
p4595
aVlog
p4596
aVnonprofit
p4597
aVwaves
p4598
aVhatred
p4599
aVguessing
p4600
aVdetection
p4601
aV58
p4602
aVproducing
p4603
aVottawa
p4604
aVpatriots
p4605
aVrepresent
p4606
aVconversations
p4607
aV8th
p4608
aVph
p4609
aVpizza
p4610
aVmoon
p4611
aV\U0001f92c
p4612
aVultimate
p4613
aVquietly
p4614
aVfigured
p4615
aVvehicles
p4616
aVseats
p4617
aVmnuchin
p4618
aVcampaigns
p4619
aVrandpaul
p4620
aVislands
p4621
aVhorse
p4622
aVlarry
p4623
aVcarers
p4624
aVlifetime
p4625
aVabsence
p4626
aVprovider
p4627
aVpink
p4628
aVtrick
p4629
aVdumbass
p4630
aVasians
p4631
aVdenies
p4632
aVavailability
p4633
aV68
p4634
aVfined
p4635
aVpharmaceutical
p4636
aVsing
p4637
aVwaiver
p4638
aVmans
p4639
aVkitchen
p4640
aVhmmm
p4641
aVdefends
p4642
aV1m
p4643
aVcelebrity
p4644
aVramp
p4645
aVobese
p4646
aVcuba
p4647
aVwalks
p4648
aVgreg
p4649
aVmartin
p4650
aVties
p4651
aVremarks
p4652
aVbeloved
p4653
aVengagement
p4654
aVstockpile
p4655
aVnypost
p4656
aVintel
p4657
aVmidnight
p4658
aVncaa
p4659
aVgratitude
p4660
aVtechnical
p4661
aVwiped
p4662
aVdevices
p4663
aVlifestyle
p4664
aVdefence
p4665
aVlegacy
p4666
aVswedens
p4667
aV21st
p4668
aVplaybook
p4669
aVpupils
p4670
aVassistant
p4671
aVterritory
p4672
aVsuppression
p4673
aVpentagon
p4674
aV\U0001f44d
p4675
aVka
p4676
aVmedium
p4677
aVversus
p4678
aVharsh
p4679
aVmo
p4680
aVunsafe
p4681
aVhorrific
p4682
aVmaster
p4683
aVmaps
p4684
aVengaged
p4685
aVuptick
p4686
aVambulance
p4687
aVflawed
p4688
aVdeliveries
p4689
aVcoronacrisis
p4690
aVinvestments
p4691
aVenable
p4692
aVdowntown
p4693
aVstudio
p4694
aVexcuses
p4695
aVbelief
p4696
aVdirected
p4697
aVadvocates
p4698
aVatleast
p4699
aVdepending
p4700
aVprecious
p4701
aVb4
p4702
aVtechnologies
p4703
aVfundraiser
p4704
aVtank
p4705
aVmaskless
p4706
aVperforming
p4707
aVdivided
p4708
aVbillionaire
p4709
aVintelligent
p4710
aVnears
p4711
aVhoarding
p4712
aVimproved
p4713
aVgrown
p4714
aVcollecting
p4715
aVclassic
p4716
aVrevised
p4717
aVmoderna
p4718
aVorleans
p4719
aVpics
p4720
aVactors
p4721
aVefficacy
p4722
aVcritically
p4723
aVmyths
p4724
aVpages
p4725
aVdisparities
p4726
aVlil
p4727
aVcountless
p4728
aVmachines
p4729
aVkingrezizt
p4730
aVroute
p4731
aVpostcoronavirus
p4732
aVdenmark
p4733
aVstaffers
p4734
aVattached
p4735
aVcomeback
p4736
aVconstitutional
p4737
aVcrypto
p4738
aVinsanity
p4739
aVhotline
p4740
aVunderway
p4741
aVelizabeth
p4742
aVhenry
p4743
aVlocking
p4744
aVorganized
p4745
aV83
p4746
aV\u2705
p4747
aVfairly
p4748
aVscottadamssays
p4749
aVyamiche
p4750
aVdeniers
p4751
aVmedics
p4752
aVdaughters
p4753
aVstunt
p4754
aVsalaries
p4755
aVnuclear
p4756
aVpanicking
p4757
aVvan
p4758
aVmystery
p4759
aV20th
p4760
aVdeemed
p4761
aVlandscape
p4762
aVoperational
p4763
aVessentials
p4764
aVimplementing
p4765
aV2121
p4766
aVviewers
p4767
aVhavoc
p4768
aVtouched
p4769
aVdancing
p4770
aVceremony
p4771
aVapproximately
p4772
aVmn
p4773
aVlicense
p4774
aVpaycheck
p4775
aVmaximum
p4776
aVtennis
p4777
aVtheater
p4778
aVmarijuana
p4779
aV77
p4780
aVtrigger
p4781
aVspit
p4782
aVum
p4783
aVbarrett
p4784
aV0208
p4785
aVqualified
p4786
aVvaccinated
p4787
aVnegotiations
p4788
aV30th
p4789
aVbomb
p4790
aVinfects
p4791
aVanswering
p4792
aVvancouver
p4793
aVembrace
p4794
aVkidney
p4795
aVowns
p4796
aVsecpompeo
p4797
aVunrelated
p4798
aVaccelerated
p4799
aVsteady
p4800
aVnoon
p4801
aV\U0001f602\U0001f602\U0001f602
p4802
aVsane
p4803
aVandrews
p4804
aVterrorism
p4805
aVaccelerating
p4806
aVadvocate
p4807
aVlatimes
p4808
aVlosers
p4809
aVke
p4810
aV2009
p4811
aVraging
p4812
aVdonnie
p4813
aVdoug
p4814
aVfinger
p4815
aVmatches
p4816
aVaccessible
p4817
aVcricket
p4818
aVimpeached
p4819
aVpsychological
p4820
aVramadan
p4821
aV61
p4822
aVdescribe
p4823
aVevolving
p4824
aV64
p4825
aVirrelevant
p4826
aVpope
p4827
aV15000
p4828
aVhellofantasticradiocouk
p4829
aVventilation
p4830
aV2022
p4831
aVresisterchic
p4832
aVcages
p4833
aVbottle
p4834
aVindependence
p4835
aVthreaten
p4836
aVrushed
p4837
aVsoccer
p4838
aVcommentary
p4839
aVsubscribe
p4840
aVobamas
p4841
aVclient
p4842
aVtremendous
p4843
aVprepares
p4844
aVfamiliar
p4845
aVruling
p4846
aVabandoned
p4847
aVtuned
p4848
aVletters
p4849
aVsturgeon
p4850
aVplain
p4851
aVsanitizers
p4852
aVproportion
p4853
aVspy
p4854
aVdutch
p4855
aVengineering
p4856
aVrioters
p4857
aVleftist
p4858
aVconflict
p4859
aVblah
p4860
aVeased
p4861
aVclaudiababyg
p4862
aVfavourite
p4863
aVtravelled
p4864
aVmandated
p4865
aVsocalled
p4866
aVdefeated
p4867
aVrage
p4868
aV300000
p4869
aVtransparent
p4870
aVshortly
p4871
aVcanceling
p4872
aVreverse
p4873
aV82
p4874
aVprize
p4875
aV25th
p4876
aVbiz
p4877
aV91
p4878
aVcoronaupdate
p4879
aVuss
p4880
aVloser
p4881
aVconclusion
p4882
aVfreedoms
p4883
aVuniverse
p4884
aVlaunching
p4885
aVmedicaid
p4886
aV\U0001f633
p4887
aVeducators
p4888
aVdictator
p4889
aVmarked
p4890
aVequivalent
p4891
aVbotched
p4892
aVlaura
p4893
aVimmigrant
p4894
aVtone
p4895
aVportland
p4896
aVpregnancy
p4897
aVsage
p4898
aVbrutal
p4899
aVfm
p4900
aVclassified
p4901
aV80000
p4902
aVbeware
p4903
aVclock
p4904
aVroundup
p4905
aVfurloughed
p4906
aVmadrid
p4907
aVstrengthen
p4908
aVpompeo
p4909
aVlouis
p4910
aVpts
p4911
aVpattern
p4912
aVhighlighting
p4913
aVclip
p4914
aVfunder
p4915
aVgraham
p4916
aVsurgeries
p4917
aVgrace
p4918
aVbidenharris2020
p4919
aVbrazilian
p4920
aVdeployed
p4921
aVamen
p4922
aVchennai
p4923
aVphd
p4924
aVhkrassenstein
p4925
aV73
p4926
aVnashville
p4927
aVliars
p4928
aVmoscow
p4929
aVdeclining
p4930
aVrequirement
p4931
aVdisgraceful
p4932
aVteens
p4933
aVfilling
p4934
aVrelationships
p4935
aVgolfing
p4936
aV62
p4937
aVblown
p4938
aVhazard
p4939
aVmall
p4940
aVpacific
p4941
aVdisinfect
p4942
aVweed
p4943
aVseacreaturemama
p4944
aVtalent
p4945
aVexempt
p4946
aVmarklevinshow
p4947
aVabsurd
p4948
aVflew
p4949
aVtouted
p4950
aVmilestone
p4951
aVbrazils
p4952
aVmountain
p4953
aVresponds
p4954
aVunderstood
p4955
aVcollected
p4956
aV\U0001f602\U0001f602
p4957
aVelective
p4958
aVcharging
p4959
aVsporting
p4960
aVshoes
p4961
aVcop
p4962
aVskip
p4963
aVgovabbott
p4964
aVfort
p4965
aVpermission
p4966
aVbrains
p4967
aVbush
p4968
aVgaming
p4969
aVbread
p4970
aV81
p4971
aVincident
p4972
aVbattles
p4973
aVhalts
p4974
aVnorway
p4975
aVrealtime
p4976
aVbasement
p4977
aVacademy
p4978
aVmanufactured
p4979
aVposes
p4980
aVswabs
p4981
aVtexans
p4982
aVreduces
p4983
aVconvenient
p4984
aVdevastated
p4985
aVscore
p4986
aVpartying
p4987
aVcotton
p4988
aVmirror
p4989
aVbizarre
p4990
aVembarrassing
p4991
aVforeigners
p4992
aVcensus
p4993
aVdistress
p4994
aVhrdministry
p4995
aVcoalition
p4996
aVpeatches66
p4997
aV130
p4998
aVcatches
p4999
aVrealdonaldtrumps
p5000
a.