(dp0
I0
Vcovid19
p1
sI1
Vcases
p2
sI2
Vnew
p3
sI3
Vcoronavirus
p4
sI4
Vamp
p5
sI5
Vpeople
p6
sI6
Vcovid-19
p7
sI7
Vpandemic
p8
sI8
Vdeaths
p9
sI9
Vus
p10
sI10
Vhealth
p11
sI11
Vone
p12
sI12
Vpositive
p13
sI13
Vget
p14
sI14
Vcovid
p15
sI15
Vtoday
p16
sI16
Vtotal
p17
sI17
Vlike
p18
sI18
Vindia
p19
sI19
Vhelp
p20
sI20
Vmask
p21
sI21
Vneed
p22
sI22
Vrealdonaldtrump
p23
sI23
Vtime
p24
sI24
Vlast
p25
sI25
Vday
p26
sI26
Vvaccine
p27
sI27
Vmany
p28
sI28
Vnews
p29
sI29
Vtrump
p30
sI30
Vworld
p31
sI31
V2020
p32
sI32
Vknow
p33
sI33
Vreported
p34
sI34
Vfirst
p35
sI35
Vaugust
p36
sI36
Vmasks
p37
sI37
Vdue
p38
sI38
Vspread
p39
sI39
Vstill
p40
sI40
Vtesting
p41
sI41
Vnumber
p42
sI42
Vvirus
p43
sI43
Veven
p44
sI44
Vtested
p45
sI45
Vback
p46
sI46
Vtake
p47
sI47
Vdeath
p48
sI48
Vvia
p49
sI49
Vplease
p50
sI50
Vupdate
p51
sI51
Vwork
p52
sI52
Vgood
p53
sI53
Vlockdown
p54
sI54
Vgo
p55
sI55
Vhome
p56
sI56
Vgoing
p57
sI57
Vsee
p58
sI58
Vstate
p59
sI59
Vwould
p60
sI60
Vglobal
p61
sI61
V24
p62
sI62
Vdaily
p63
sI63
Vgovernment
p64
sI64
Vsays
p65
sI65
Vtests
p66
sI66
Vtest
p67
sI67
Vmake
p68
sI68
Vcountry
p69
sI69
Vcould
p70
sI70
Vread
p71
sI71
Vcare
p72
sI72
Vschool
p73
sI73
Vit\u2019s
p74
sI74
Vrisk
p75
sI75
Vsafe
p76
sI76
Vdays
p77
sI77
Vsince
p78
sI78
Vpublic
p79
sI79
Vmay
p80
sI80
Vlatest
p81
sI81
Vface
p82
sI82
Vpatients
p83
sI83
Vdata
p84
sI84
Vwear
p85
sI85
Vconfirmed
p86
sI86
Vwant
p87
sI87
Vthink
p88
sI88
Vcase
p89
sI89
Vway
p90
sI90
Vkeep
p91
sI91
Vcorona
p92
sI92
Vjuly
p93
sI93
Vevery
p94
sI94
Vchildren
p95
sI95
Vuk
p96
sI96
Vright
p97
sI97
Vsupport
p98
sI98
Vsaid
p99
sI99
Vschools
p100
sI100
Vreports
p101
sI101
Vgreat
p102
sI102
Vsocial
p103
sI103
Vdied
p104
sI104
Valso
p105
sI105
Vmust
p106
sI106
Vmillion
p107
sI107
Vyear
p108
sI108
Vlive
p109
sI109
Vbusiness
p110
sI110
Vstay
p111
sI111
Vwell
p112
sI112
Vamericans
p113
sI113
Vweek
p114
sI114
Vsay
p115
sI115
Vhospital
p116
sI116
Vhours
p117
sI117
Vrate
p118
sI118
Vresponse
p119
sI119
Vcrisis
p120
sI120
Vstop
p121
sI121
Vdr
p122
sI122
Vstudents
p123
sI123
Varound
p124
sI124
Vlook
p125
sI125
Vlife
p126
sI126
Vmuch
p127
sI127
Vkids
p128
sI128
Vactive
p129
sI129
Vdon\u2019t
p130
sI130
Vanother
p131
sI131
Vreally
p132
sI132
Vwearing
p133
sI133
Vimpact
p134
sI134
Vtwo
p135
sI135
Veveryone
p136
sI136
Vwatch
p137
sI137
Vfree
p138
sI138
V10
p139
sI139
Vuse
p140
sI140
Vfight
p141
sI141
Vgot
p142
sI142
Vcheck
p143
sI143
Vth
p144
sI144
Vreport
p145
sI145
Vrecovered
p146
sI146
Vcommunity
p147
sI147
Vsymptoms
p148
sI148
Vstates
p149
sI149
Vmonths
p150
sI150
Vworking
p151
sI151
Vpart
p152
sI152
Vtaking
p153
sI153
Vtally
p154
sI154
Vimportant
p155
sI155
Vi'm
p156
sI156
Vbest
p157
sI157
Vworkers
p158
sI158
Vpresident
p159
sI159
Vlives
p160
sI160
Vfamily
p161
sI161
Vminister
p162
sI162
Vtimes
p163
sI163
Vmedical
p164
sI164
Vmade
p165
sI165
Vchina
p166
sI166
Vgetting
p167
sI167
Vprotect
p168
sI168
Vnext
p169
sI169
Vcountries
p170
sI170
Vacross
p171
sI171
Vbetter
p172
sI172
Vrecovery
p173
sI173
Vquarantine
p174
sI174
Vspike
p175
sI175
Vonline
p176
sI176
Vvideo
p177
sI177
Vjoin
p178
sI178
Vthank
p179
sI179
Vmedia
p180
sI180
Vnever
p181
sI181
Vhigh
p182
sI182
Vper
p183
sI183
Veconomy
p184
sI184
Vopen
p185
sI185
Vneeds
p186
sI186
Vthanks
p187
sI187
Valert
p188
sI188
Vamid
p189
sI189
Vlocal
p190
sI190
Vfind
p191
sI191
Vcome
p192
sI192
Vincluding
p193
sI193
Vlong
p194
sI194
Vwithout
p195
sI195
Vplan
p196
sI196
Vtop
p197
sI197
Vnumbers
p198
sI198
Vhealthcare
p199
sI199
Vfollow
p200
sI200
Vstudy
p201
sI201
Vgive
p202
sI202
Vstart
p203
sI203
Vi\u2019m
p204
sI204
Vresearch
p205
sI205
Vnational
p206
sI206
Vlove
p207
sI207
Vusa
p208
sI208
Vperson
p209
sI209
Vcontinue
p210
sI210
Vsafety
p211
sI211
Vfood
p212
sI212
Vcounty
p213
sI213
Vhope
p214
sI214
Vtravel
p215
sI215
Vtoll
p216
sI216
Vsure
p217
sI217
Vreal
p218
sI218
Vstaff
p219
sI219
Vbreaking
p220
sI220
Vfull
p221
sI221
Vlet
p222
sI222
Vrussia
p223
sI223
Vanyone
p224
sI224
Vyet
p225
sI225
Vsituation
p226
sI226
Vcan't
p227
sI227
Vthings
p228
sI228
Vfar
p229
sI229
Vsouth
p230
sI230
Vweeks
p231
sI231
Vbig
p232
sI232
Vlooking
p233
sI233
Vupdates
p234
sI234
Vaway
p235
sI235
Vyears
p236
sI236
Vcall
p237
sI237
Vput
p238
sI238
Vpost
p239
sI239
Voutbreak
p240
sI240
Vsign
p241
sI241
Vamerica
p242
sI242
Vdone
p243
sI243
Vcoronaviruspandemic
p244
sI244
Vshare
p245
sI245
Vteam
p246
sI246
Vinfected
p247
sI247
Vusing
p248
sI248
Veconomic
p249
sI249
Vchange
p250
sI250
Vpm
p251
sI251
Vlearn
p252
sI252
Vbusinesses
p253
sI253
Vlost
p254
sI254
Vmorning
p255
sI255
Vdistancing
p256
sI256
Vyesterday
p257
sI257
Vdie
p258
sI258
Vaug
p259
sI259
Vend
p260
sI260
Valready
p261
sI261
Vcity
p262
sI262
Vrise
p263
sI263
Vfuture
p264
sI264
Vinfections
p265
sI265
Vhighest
p266
sI266
Veducation
p267
sI267
Vjob
p268
sI268
Vmaking
p269
sI269
Vman
p270
sI270
Vyoung
p271
sI271
Vthing
p272
sI272
Vu.s
p273
sI273
Varticle
p274
sI274
Vslow
p275
sI275
Vcontact
p276
sI276
Vmeasures
p277
sI277
V100
p278
sI278
Vremember
p279
sI279
Vever
p280
sI280
Vdead
p281
sI281
Vwe're
p282
sI282
Vcoming
p283
sI283
Vodisha
p284
sI284
Vavailable
p285
sI285
Vcontrol
p286
sI286
Vtell
p287
sI287
Vblood
p288
sI288
Vgovt
p289
sI289
Vgop
p290
sI290
Vpolice
p291
sI291
Vthree
p292
sI292
Vused
p293
sI293
Vsomeone
p294
sI294
Vamerican
p295
sI295
Vwomen
p296
sI296
Vtogether
p297
sI297
Vfeel
p298
sI298
Vinfection
p299
sI299
Vothers
p300
sI300
Vshow
p301
sI301
Vhard
p302
sI302
Vflorida
p303
sI303
Vplasma
p304
sI304
Vgmt
p305
sI305
Vinformation
p306
sI306
Vincrease
p307
sI307
Vkey
p308
sI308
Vdoctors
p309
sI309
Vrecoveries
p310
sI310
Vhappy
p311
sI311
Vcoronavirusupdate
p312
sI312
Vpay
p313
sI313
Vhit
p314
sI314
Vsecond
p315
sI315
Vannounced
p316
sI316
Vofficials
p317
sI317
Vwebinar
p318
sI318
Valways
p319
sI319
Vplace
p320
sI320
Vcovid_19
p321
sI321
Vless
p322
sI322
Vfamilies
p323
sI323
Vdistrict
p324
sI324
Vamong
p325
sI325
Vwearamask
p326
sI326
Vbelieve
p327
sI327
V20
p328
sI328
Vindustry
p329
sI329
Vafrica
p330
sI330
Venough
p331
sI331
Vworldwide
p332
sI332
Vresults
p333
sI333
Vsystem
p334
sI334
Vearly
p335
sI335
Vchief
p336
sI336
Vmight
p337
sI337
Vshows
p338
sI338
Vlot
p339
sI339
Vpast
p340
sI340
Vfound
p341
sI341
Vrecord
p342
sI342
Vrestrictions
p343
sI343
Vleast
p344
sI344
Vservices
p345
sI345
Vmoney
p346
sI346
Vdisease
p347
sI347
Vtreatment
p348
sI348
Vable
p349
sI349
Vcan\u2019t
p350
sI350
Vcdc
p351
sI351
Vbad
p352
sI352
Vdespite
p353
sI353
Vrelief
p354
sI354
Vhospitals
p355
sI355
V19
p356
sI356
Vflu
p357
sI357
Vsmall
p358
sI358
Vhands
p359
sI359
Vunderstand
p360
sI360
Vapp
p361
sI361
Vsaturday
p362
sI362
Vreturn
p363
sI363
Vcanada
p364
sI364
Vlittle
p365
sI365
Vclosed
p366
sI366
Vclose
p367
sI367
Vnegative
p368
sI368
Vrecorded
p369
sI369
Vexperts
p370
sI370
Voffice
p371
sI371
Vvaccines
p372
sI372
Vbecome
p373
sI373
V14
p374
sI374
Vtrying
p375
sI375
Vfollowing
p376
sI376
Vset
p377
sI377
Vyes
p378
sI378
Vaccording
p379
sI379
Vespecially
p380
sI380
Vyoutube
p381
sI381
Vlikely
p382
sI382
V12
p383
sI383
Vlet's
p384
sI384
Vtexas
p385
sI385
Vsingle
p386
sI386
Vcurrent
p387
sI387
Vnormal
p388
sI388
Vorder
p389
sI389
Videntify
p390
sI390
Vgets
p391
sI391
Vfriends
p392
sI392
Vparents
p393
sI393
Vsamples
p394
sI394
Vold
p395
sI395
Vteachers
p396
sI396
Vmembers
p397
sI397
Vhere's
p398
sI398
Vscience
p399
sI399
Vsave
p400
sI400
Vleaders
p401
sI401
Vthread
p402
sI402
Vjobs
p403
sI403
Vaccess
p404
sI404
Vmark
p405
sI405
Vdifferent
p406
sI406
Vthought
p407
sI407
Vstory
p408
sI408
Vsomething
p409
sI409
Vgod
p410
sI410
V30
p411
sI411
Vemergency
p412
sI412
Vsoon
p413
sI413
Vtalk
p414
sI414
Vaffected
p415
sI415
Vnothing
p416
sI416
Vseen
p417
sI417
Vhuman
p418
sI418
Vhouse
p419
sI419
Vprovide
p420
sI420
Veverything
p421
sI421
Vprevent
p422
sI422
Vsick
p423
sI423
Vcontinues
p424
sI424
Vvirtual
p425
sI425
Vinternational
p426
sI426
Vunited
p427
sI427
Vlakh
p428
sI428
Vtransmission
p429
sI429
Vlisten
p430
sI430
Vreopening
p431
sI431
Vplay
p432
sI432
Vsingle-day
p433
sI433
Vrecent
p434
sI434
Vpotus
p435
sI435
Vchallenges
p436
sI436
Vliving
p437
sI437
Vaustralia
p438
sI438
Vwhole
p439
sI439
Vsaying
p440
sI440
Vways
p441
sI441
Vthat's
p442
sI442
Vsunday
p443
sI443
Vsooner
p444
sI444
Vservice
p445
sI445
Vtaken
p446
sI446
Vguidelines
p447
sI447
Vthousands
p448
sI448
Vcongress
p449
sI449
Valmost
p450
sI450
Vtomorrow
p451
sI451
Vpopulation
p452
sI452
Vdying
p453
sI453
Vworst
p454
sI454
Vlevel
p455
sI455
Vleft
p456
sI456
Vinteresting
p457
sI457
Vrecords
p458
sI458
Vago
p459
sI459
Vlearning
p460
sI460
Vmonth
p461
sI461
Vnearly
p462
sI462
Vlink
p463
sI463
Vhear
p464
sI464
V15
p465
sI465
Vgiven
p466
sI466
Vmakes
p467
sI467
Vhey
p468
sI468
Vfear
p469
sI469
Veffective
p470
sI470
Vcompanies
p471
sI471
Vseason
p472
sI472
Vtoday's
p473
sI473
Vactually
p474
sI474
Vlooks
p475
sI475
Vensure
p476
sI476
Vupdated
p477
sI477
Vblog
p478
sI478
Vair
p479
sI479
Vmarch
p480
sI480
Vtwitter
p481
sI481
Vfriday
p482
sI482
Vrises
p483
sI483
Vi\u2019ll
p484
sI484
Vfauci
p485
sI485
Vcritical
p486
sI486
Vgroup
p487
sI487
Vtill
p488
sI488
Vhealthy
p489
sI489
Vvisit
p490
sI490
Vpoint
p491
sI491
Vself-reporting
p492
sI492
Vweekend
p493
sI493
Vindia's
p494
sI494
Vrelated
p495
sI495
Vhelping
p496
sI496
Vhand
p497
sI497
Vmarket
p498
sI498
Vfighting
p499
sI499
Vlist
p500
sI500
Vrapid
p501
sI501
Vadvice
p502
sI502
Vconducted
p503
sI503
Vtold
p504
sI504
Vready
p505
sI505
Vreporting
p506
sI506
Vwe\u2019re
p507
sI507
Vseems
p508
sI508
Vcommunities
p509
sI509
Vemployees
p510
sI510
Vdiscuss
p511
sI511
Vyou\u2019re
p512
sI512
Vborisjohnson
p513
sI513
Vforget
p514
sI514
Vbill
p515
sI515
Vfresh
p516
sI516
V25
p517
sI517
Vfact
p518
sI518
Vvote
p519
sI519
V16
p520
sI520
V13
p521
sI521
Vmean
p522
sI522
Vhydroxychloroquine
p523
sI523
Vfederal
p524
sI524
Vmillions
p525
sI525
Vwants
p526
sI526
Vincreased
p527
sI527
Vfour
p528
sI528
V11
p529
sI529
Vpatient
p530
sI530
Vmajor
p531
sI531
Vjoebiden
p532
sI532
Vpossible
p533
sI533
Vaction
p534
sI534
Vresult
p535
sI535
Vlow
p536
sI536
Vtook
p537
sI537
Vfall
p538
sI538
Vessential
p539
sI539
Vneeded
p540
sI540
Vrole
p541
sI541
Vwave
p542
sI542
Vevidence
p543
sI543
Vfinancial
p544
sI544
Vmeans
p545
sI545
Voh
p546
sI546
Vdigital
p547
sI547
Vact
p548
sI548
Vministry
p549
sI549
Vzealand
p550
sI550
Vtrue
p551
sI551
Vsummer
p552
sI552
V50
p553
sI553
Vanything
p554
sI554
Vnight
p555
sI555
Vhigher
p556
sI556
Vstarted
p557
sI557
Vdoctor
p558
sI558
Vwent
p559
sI559
Vcm
p560
sI560
Vparty
p561
sI561
Vpolitical
p562
sI562
Vco
p563
sI563
Vhead
p564
sI564
Valong
p565
sI565
Vblack
p566
sI566
Vcannot
p567
sI567
Vbased
p568
sI568
Vresidents
p569
sI569
Vtry
p570
sI570
Vquestion
p571
sI571
Vdeliver
p572
sI572
Vspecial
p573
sI573
Vmaybe
p574
sI574
Vones
p575
sI575
Vsurvey
p576
sI576
Vcitizens
p577
sI577
Vcause
p578
sI578
Vbringing
p579
sI579
Vcoronainfoch
p580
sI580
Vtalking
p581
sI581
Vspreading
p582
sI582
Vcalifornia
p583
sI583
Vsad
p584
sI584
Vtechnology
p585
sI585
Vask
p586
sI586
Vcure
p587
sI587
Vscientists
p588
sI588
Vuniversity
p589
sI589
Vca
p590
sI590
Vbiggest
p591
sI591
Velection
p592
sI592
Vcompany
p593
sI593
Vsaw
p594
sI594
Vcount
p595
sI595
Vplans
p596
sI596
Vshut
p597
sI597
Vtrust
p598
sI598
Vage
p599
sI599
Vcnn
p600
sI600
Vcalled
p601
sI601
Vdeveloped
p602
sI602
Vchild
p603
sI603
Vofficial
p604
sI604
Vrules
p605
sI605
Vtype
p606
sI606
Vpower
p607
sI607
Vmonday
p608
sI608
Vcollege
p609
sI609
Vseries
p610
sI610
Vbring
p611
sI611
Vimmunity
p612
sI612
Vfocus
p613
sI613
Vsecurity
p614
sI614
Vcomes
p615
sI615
Vnovel
p616
sI616
Vissues
p617
sI617
Vwhite
p618
sI618
Vmental
p619
sI619
Vissue
p620
sI620
Vdelhi
p621
sI621
Vwater
p622
sI622
Vchanges
p623
sI623
V1st
p624
sI624
Vopportunity
p625
sI625
Vwrong
p626
sI626
Vdetails
p627
sI627
Vinstead
p628
sI628
Vclinical
p629
sI629
Vpolicy
p630
sI630
Vreopen
p631
sI631
Vstand
p632
sI632
Vrest
p633
sI633
Vpoor
p634
sI634
Vresources
p635
sI635
Vthere's
p636
sI636
Vproblem
p637
sI637
Velse
p638
sI638
Vcurrently
p639
sI639
Vexperience
p640
sI640
Vgrowth
p641
sI641
Vleadership
p642
sI642
Vwait
p643
sI643
Vsocialdistancing
p644
sI644
Vphase
p645
sI645
Vclasses
p646
sI646
Vseeing
p647
sI647
Vi've
p648
sI648
Vvictoria
p649
sI649
Vputin
p650
sI650
Vdevelopment
p651
sI651
Vdoesn\u2019t
p652
sI652
Vtruth
p653
sI653
Vstatus
p654
sI654
Vrun
p655
sI655
Vst
p656
sI656
Vreason
p657
sI657
Vindian
p658
sI658
Vkeeping
p659
sI659
Vbrazil
p660
sI660
Vlack
p661
sI661
Vquestions
p662
sI662
Vreduce
p663
sI663
Vcopy
p664
sI664
Vreach
p665
sI665
Vmeet
p666
sI666
Vcovidiots
p667
sI667
Vfive
p668
sI668
Vde
p669
sI669
Vproud
p670
sI670
Vfinally
p671
sI671
Vline
p672
sI672
Vchanged
p673
sI673
Vsend
p674
sI674
Vwoman
p675
sI675
Vmiss
p676
sI676
Vcampaign
p677
sI677
Vgone
p678
sI678
Vheart
p679
sI679
Vunemployment
p680
sI680
Vmind
p681
sI681
Vnarendramodi
p682
sI682
Vbiden
p683
sI683
Vcrosses
p684
sI684
Vpradesh
p685
sI685
Vtrials
p686
sI686
Vkilled
p687
sI687
Voutside
p688
sI688
Vwe've
p689
sI689
Vgame
p690
sI690
Veffects
p691
sI691
Vcaused
p692
sI692
Vnhs
p693
sI693
Vcourse
p694
sI694
Vchallenge
p695
sI695
Vrates
p696
sI696
Vwonder
p697
sI697
Vefforts
p698
sI698
Vtips
p699
sI699
Vdemand
p700
sI700
Vthinking
p701
sI701
Vmeeting
p702
sI702
Vdepartment
p703
sI703
Vavoid
p704
sI704
Vchinese
p705
sI705
Vleader
p706
sI706
Vvulnerable
p707
sI707
Vcreated
p708
sI708
Vthat\u2019s
p709
sI709
Vincreasing
p710
sI710
Vhuge
p711
sI711
Vlead
p712
sI712
V18
p713
sI713
Vresearchers
p714
sI714
Vloved
p715
sI715
Vproject
p716
sI716
Vstaysafe
p717
sI717
Vwithin
p718
sI718
Vtrump's
p719
sI719
Vtelangana
p720
sI720
Vmanagement
p721
sI721
Vmass
p722
sI722
Vbehind
p723
sI723
Vfeeling
p724
sI724
Vmatter
p725
sI725
Vcommon
p726
sI726
Vhi
p727
sI727
Vcoronavirusupdates
p728
sI728
Vprogram
p729
sI729
Vasking
p730
sI730
Vremote
p731
sI731
Vkill
p732
sI732
Vsurge
p733
sI733
Vwash
p734
sI734
Vhoax
p735
sI735
Vclear
p736
sI736
Vgiving
p737
sI737
Vlet\u2019s
p738
sI738
Vserious
p739
sI739
Vwish
p740
sI740
Vdeal
p741
sI741
Vbody
p742
sI742
Vvs
p743
sI743
Vcreate
p744
sI744
Vdistance
p745
sI745
Vadministration
p746
sI746
Vhalf
p747
sI747
Vaverage
p748
sI748
Vpass
p749
sI749
Vfire
p750
sI750
Vfunding
p751
sI751
Vforced
p752
sI752
Vguys
p753
sI753
V26
p754
sI754
Vasked
p755
sI755
Vnigeria
p756
sI756
Vfriend
p757
sI757
Vengland
p758
sI758
Visolation
p759
sI759
Vdeadly
p760
sI760
Vspain
p761
sI761
Vamazing
p762
sI762
Vpotential
p763
sI763
Vdear
p764
sI764
Vclaims
p765
sI765
Vstrong
p766
sI766
Vi\u2019ve
p767
sI767
Vheard
p768
sI768
Vshares
p769
sI769
Vshowing
p770
sI770
Vpakistan
p771
sI771
Vprivate
p772
sI772
Vhappening
p773
sI773
Vcentre
p774
sI774
Veasy
p775
sI775
Vsector
p776
sI776
Vrunning
p777
sI777
Vpiece
p778
sI778
Vahead
p779
sI779
Vpodcast
p780
sI780
Vevent
p781
sI781
Vcover
p782
sI782
Vrussian
p783
sI783
Vformer
p784
sI784
Vyouth
p785
sI785
Vbreak
p786
sI786
Vhomes
p787
sI787
Vloss
p788
sI788
Vimmune
p789
sI789
Vcame
p790
sI790
Vwhat's
p791
sI791
Vseptember
p792
sI792
Vremain
p793
sI793
Vwhether
p794
sI794
Vrecently
p795
sI795
Vtech
p796
sI796
Vgoes
p797
sI797
Vstarting
p798
sI798
Vbuy
p799
sI799
Vgov
p800
sI800
Vbillion
p801
sI801
Vleave
p802
sI802
Vclass
p803
sI803
Vsports
p804
sI804
Vmove
p805
sI805
Vgovernor
p806
sI806
Vsix
p807
sI807
Vworse
p808
sI808
Vnation
p809
sI809
V17
p810
sI810
Vbook
p811
sI811
Vsource
p812
sI812
Vexpert
p813
sI813
Vdifficult
p814
sI814
Vworth
p815
sI815
Vppe
p816
sI816
Vwow
p817
sI817
Vdidn\u2019t
p818
sI818
Vwhitehouse
p819
sI819
Videa
p820
sI820
Vsuffering
p821
sI821
Vplaying
p822
sI822
Vstupid
p823
sI823
Vnorth
p824
sI824
Vwatching
p825
sI825
Vbrother
p826
sI826
Vdate
p827
sI827
Vrecover
p828
sI828
Vsense
p829
sI829
Vgeneral
p830
sI830
Vdownload
p831
sI831
Vtracing
p832
sI832
Vtonight
p833
sI833
Vepisode
p834
sI834
Ventire
p835
sI835
Vhotel
p836
sI836
Vrising
p837
sI837
Vdecision
p838
sI838
Visn\u2019t
p839
sI839
Vinterview
p840
sI840
Vforward
p841
sI841
Vthey're
p842
sI842
Vthough
p843
sI843
Vmember
p844
sI844
Vamount
p845
sI845
V40
p846
sI846
Vcovid\u30fc19
p847
sI847
Vimpacted
p848
sI848
Vcomplete
p849
sI849
Vmlb
p850
sI850
Vcustomers
p851
sI851
Vfootball
p852
sI852
Vhappen
p853
sI853
Vhandling
p854
sI854
Vkarnataka
p855
sI855
Vtreat
p856
sI856
Vseriously
p857
sI857
Vmaharashtra
p858
sI858
Vppl
p859
sI859
Vsir
p860
sI860
Vcost
p861
sI861
Vha
p862
sI862
Vpage
p863
sI863
Vreview
p864
sI864
Vprobably
p865
sI865
Vdirector
p866
sI866
Vshit
p867
sI867
Vstrategy
p868
sI868
Vlarge
p869
sI869
Vwaiting
p870
sI870
Vkind
p871
sI871
Vcross
p872
sI872
Vsharing
p873
sI873
Vcalls
p874
sI874
Vregistered
p875
sI875
Vdischarged
p876
sI876
Vwebsite
p877
sI877
Vcenter
p878
sI878
Vmusic
p879
sI879
Vwake
p880
sI880
Vcomponent
p881
sI881
Vcancer
p882
sI882
Vtakes
p883
sI883
Vhold
p884
sI884
V22
p885
sI885
Vsimple
p886
sI886
Vai
p887
sI887
Vdemocrats
p888
sI888
Vreminder
p889
sI889
Vfront
p890
sI890
Vmessage
p891
sI891
Varea
p892
sI892
Vopening
p893
sI893
Vyork
p894
sI894
Vok
p895
sI895
V21
p896
sI896
Vallow
p897
sI897
Veurope
p898
sI898
Vstudent
p899
sI899
Vfacemask
p900
sI900
Vinfo
p901
sI901
Vtuesday
p902
sI902
Vattention
p903
sI903
Vwin
p904
sI904
Vgeorgia
p905
sI905
Vbuilding
p906
sI906
Vrights
p907
sI907
Vtweet
p908
sI908
Vceo
p909
sI909
Vanswer
p910
sI910
Voffer
p911
sI911
Vview
p912
sI912
Vled
p913
sI913
Vexcellent
p914
sI914
Vresponsible
p915
sI915
Vgt
p916
sI916
Vsa
p917
sI917
Vhistory
p918
sI918
Vnursing
p919
sI919
Vphysical
p920
sI920
Vtrumpvirus
p921
sI921
Vsending
p922
sI922
Vdaughter
p923
sI923
Vknown
p924
sI924
Vdrug
p925
sI925
Vfacing
p926
sI926
Vagree
p927
sI927
Vwi
p928
sI928
Vstep
p929
sI929
Vretweet
p930
sI930
Vgovernments
p931
sI931
Vleading
p932
sI932
Vcities
p933
sI933
Vprotest
p934
sI934
Vworks
p935
sI935
Vstruggling
p936
sI936
Vnurses
p937
sI937
Vpaper
p938
sI938
Vregarding
p939
sI939
Vplayers
p940
sI940
Vaddress
p941
sI941
Vireland
p942
sI942
Vshort
p943
sI943
Vborder
p944
sI944
Vsupply
p945
sI945
Vuae
p946
sI946
Vclean
p947
sI947
Vguidance
p948
sI948
Vwar
p949
sI949
Vtrial
p950
sI950
Vnice
p951
sI951
Vinsurance
p952
sI952
Vfake
p953
sI953
Vreleased
p954
sI954
Vmassive
p955
sI955
Vzero
p956
sI956
Vseveral
p957
sI957
Vfailed
p958
sI958
Vfo
p959
sI959
Vkilling
p960
sI960
Vallowed
p961
sI961
Vwilling
p962
sI962
Vicymi
p963
sI963
Vplaces
p964
sI964
Vtraining
p965
sI965
Vdangerous
p966
sI966
Vfacilities
p967
sI967
Vfuck
p968
sI968
Vwelcome
p969
sI969
Vforce
p970
sI970
Vfacebook
p971
sI971
Vareas
p972
sI972
Vcovering
p973
sI973
Vrajasthan
p974
sI974
Vtrack
p975
sI975
Vpassed
p976
sI976
Vfacemasks
p977
sI977
Vimportance
p978
sI978
Vunion
p979
sI979
Vconcerns
p980
sI980
Vmandatory
p981
sI981
V2nd
p982
sI982
Vadditional
p983
sI983
Vclick
p984
sI984
Vfailure
p985
sI985
Vun
p986
sI986
V27
p987
sI987
Vreality
p988
sI988
Vexpected
p989
sI989
Vsenatemajldr
p990
sI990
Vauspol
p991
sI991
Vwon\u2019t
p992
sI992
Vlevels
p993
sI993
Vheld
p994
sI994
Vtowards
p995
sI995
Vrepublicans
p996
sI996
Vpersonal
p997
sI997
Vguy
p998
sI998
Vfun
p999
sI999
Vblame
p1000
sI1000
Vpractice
p1001
sI1001
Vimpacts
p1002
sI1002
Vred
p1003
sI1003
Vlight
p1004
sI1004
Vthailand
p1005
sI1005
Vfolks
p1006
sI1006
Vbrought
p1007
sI1007
Vgermany
p1008
sI1008
Vplanning
p1009
sI1009
Vlate
p1010
sI1010
Vsignificant
p1011
sI1011
Vfund
p1012
sI1012
Vpolitics
p1013
sI1013
Vrelease
p1014
sI1014
Vbeyond
p1015
sI1015
Vgonna
p1016
sI1016
Vgrowing
p1017
sI1017
Vthird
p1018
sI1018
Vshopping
p1019
sI1019
Vfrontline
p1020
sI1020
Vthere\u2019s
p1021
sI1021
Vprotection
p1022
sI1022
Vsystems
p1023
sI1023
Vhere\u2019s
p1024
sI1024
Vlonger
p1025
sI1025
Vpress
p1026
sI1026
Vsupporting
p1027
sI1027
Vevents
p1028
sI1028
Vrequest
p1029
sI1029
Vcatch
p1030
sI1030
Vbattle
p1031
sI1031
Vprotests
p1032
sI1032
Vkorea
p1033
sI1033
Vside
p1034
sI1034
Vsociety
p1035
sI1035
Vexposed
p1036
sI1036
Vnear
p1037
sI1037
Vsevere
p1038
sI1038
Vhe's
p1039
sI1039
Vstress
p1040
sI1040
Vsarscov2
p1041
sI1041
Valone
p1042
sI1042
Vfigures
p1043
sI1043
Vfrance
p1044
sI1044
Val
p1045
sI1045
Vtalks
p1046
sI1046
Vabo
p1047
sI1047
Vcalling
p1048
sI1048
Vthreat
p1049
sI1049
Vanalysis
p1050
sI1050
Vinclude
p1051
sI1051
Vdies
p1052
sI1052
Vexactly
p1053
sI1053
Vputting
p1054
sI1054
Vlaw
p1055
sI1055
Vnature
p1056
sI1056
Vimagine
p1057
sI1057
Vyo
p1058
sI1058
Vphone
p1059
sI1059
Vchance
p1060
sI1060
Vmr
p1061
sI1061
Vweekly
p1062
sI1062
Vannounces
p1063
sI1063
Vamitshah
p1064
sI1064
Vquick
p1065
sI1065
Vsent
p1066
sI1066
Vcourt
p1067
sI1067
Vbit
p1068
sI1068
Vstayhome
p1069
sI1069
Vstage
p1070
sI1070
Vwhat\u2019s
p1071
sI1071
Vpositivity
p1072
sI1072
Vthoughts
p1073
sI1073
Vcdcgov
p1074
sI1074
Vconference
p1075
sI1075
Vbenefits
p1076
sI1076
Vsuccess
p1077
sI1077
Vstatistics
p1078
sI1078
Vrealdonaldtrump's
p1079
sI1079
V29
p1080
sI1080
Vconsider
p1081
sI1081
Vauthorities
p1082
sI1082
Vlondon
p1083
sI1083
Vthursday
p1084
sI1084
Vdonald
p1085
sI1085
Vhelps
p1086
sI1086
Vterm
p1087
sI1087
Vpush
p1088
sI1088
Vlowest
p1089
sI1089
Vmoment
p1090
sI1090
Vsenate
p1091
sI1091
Vreturning
p1092
sI1092
Vhappened
p1093
sI1093
Vdiscussion
p1094
sI1094
Vapril
p1095
sI1095
Vregister
p1096
sI1096
Vchurch
p1097
sI1097
Vhe\u2019s
p1098
sI1098
Vnyc
p1099
sI1099
Vprotecting
p1100
sI1100
Vrecession
p1101
sI1101
Vedt
p1102
sI1102
Vrestaurants
p1103
sI1103
Vdisaster
p1104
sI1104
Vbc
p1105
sI1105
Vcentral
p1106
sI1106
Vmoving
p1107
sI1107
Vsorry
p1108
sI1108
Vrisks
p1109
sI1109
Vgroups
p1110
sI1110
Vadults
p1111
sI1111
Vprime
p1112
sI1112
Vfatalities
p1113
sI1113
Vicu
p1114
sI1114
Vaid
p1115
sI1115
Veffect
p1116
sI1116
Vtourism
p1117
sI1117
Vhot
p1118
sI1118
Vreading
p1119
sI1119
Vlessons
p1120
sI1120
Vguide
p1121
sI1121
Vjune
p1122
sI1122
Vcombat
p1123
sI1123
Vdelivery
p1124
sI1124
Vabsolutely
p1125
sI1125
Vmodi
p1126
sI1126
Vapproach
p1127
sI1127
Vknew
p1128
sI1128
Vaged
p1129
sI1129
Vspeaking
p1130
sI1130
Vreached
p1131
sI1131
Vexplain
p1132
sI1132
Vdecided
p1133
sI1133
Vjohnson
p1134
sI1134
Vrace
p1135
sI1135
Vname
p1136
sI1136
Vfinal
p1137
sI1137
Vfacts
p1138
sI1138
V60
p1139
sI1139
Vviral
p1140
sI1140
Vtough
p1141
sI1141
Vmentalhealth
p1142
sI1142
Vmaintain
p1143
sI1143
Vart
p1144
sI1144
Vsafely
p1145
sI1145
Vho
p1146
sI1146
Venjoy
p1147
sI1147
Vadded
p1148
sI1148
Vadmitted
p1149
sI1149
Vpublished
p1150
sI1150
Vcut
p1151
sI1151
Vmortality
p1152
sI1152
Vbeginning
p1153
sI1153
Vsteps
p1154
sI1154
Vlab
p1155
sI1155
Vdevelop
p1156
sI1156
Vcar
p1157
sI1157
Vexpect
p1158
sI1158
Vpa
p1159
sI1159
Vtelling
p1160
sI1160
Vperiod
p1161
sI1161
Vstories
p1162
sI1162
Vfully
p1163
sI1163
Vwest
p1164
sI1164
Vmarketing
p1165
sI1165
Vfatality
p1166
sI1166
Vprevention
p1167
sI1167
Vtown
p1168
sI1168
Vlies
p1169
sI1169
Vmaskup
p1170
sI1170
V31
p1171
sI1171
V28
p1172
sI1172
Vworry
p1173
sI1173
Vself
p1174
sI1174
Vhappens
p1175
sI1175
Vpoliticians
p1176
sI1176
Vasymptomatic
p1177
sI1177
Vsales
p1178
sI1178
Vmelbourne
p1179
sI1179
Vlinked
p1180
sI1180
Vfreedom
p1181
sI1181
Vdrop
p1182
sI1182
Vhousing
p1183
sI1183
Vill
p1184
sI1184
Vspeak
p1185
sI1185
Vsenior
p1186
sI1186
Vsolution
p1187
sI1187
Vworld\u2019s
p1188
sI1188
Vholiday
p1189
sI1189
Vproviding
p1190
sI1190
Vstore
p1191
sI1191
Vguess
p1192
sI1192
Vworld's
p1193
sI1193
Vcounted
p1194
sI1194
Vtrade
p1195
sI1195
Vinside
p1196
sI1196
V80
p1197
sI1197
Vinternet
p1198
sI1198
Vphilippines
p1199
sI1199
Vwords
p1200
sI1200
Vreceived
p1201
sI1201
Vrural
p1202
sI1202
Vgave
p1203
sI1203
Vprepare
p1204
sI1204
Vinfectious
p1205
sI1205
Vturn
p1206
sI1206
Vsars-cov-2
p1207
sI1207
Vprogress
p1208
sI1208
Vperfect
p1209
sI1209
Vlargest
p1210
sI1210
Vtrends
p1211
sI1211
Vstudies
p1212
sI1212
Vrequired
p1213
sI1213
Vpray
p1214
sI1214
Vproblems
p1215
sI1215
Vmodel
p1216
sI1216
Vcontain
p1217
sI1217
Vhowever
p1218
sI1218
Vpr
p1219
sI1219
Vpmoindia
p1220
sI1220
Vquality
p1221
sI1221
Vlower
p1222
sI1222
Vword
p1223
sI1223
Vpetition
p1224
sI1224
Vhundreds
p1225
sI1225
Vtot
p1226
sI1226
Vflights
p1227
sI1227
Vteams
p1228
sI1228
Vongoing
p1229
sI1229
Vaccount
p1230
sI1230
Vfucking
p1231
sI1231
Voften
p1232
sI1232
Vfacility
p1233
sI1233
Vterrible
p1234
sI1234
Vdealing
p1235
sI1235
Vdetected
p1236
sI1236
Vnz
p1237
sI1237
Vearlier
p1238
sI1238
Vitaly
p1239
sI1239
Vfalse
p1240
sI1240
Vlaunched
p1241
sI1241
Vhell
p1242
sI1242
Vla
p1243
sI1243
Vera
p1244
sI1244
Vpretty
p1245
sI1245
Vwarning
p1246
sI1246
Vsurvive
p1247
sI1247
Vpaid
p1248
sI1248
Vbusy
p1249
sI1249
Vsolutions
p1250
sI1250
Vwarns
p1251
sI1251
Vtax
p1252
sI1252
Vspeakerpelosi
p1253
sI1253
Venergy
p1254
sI1254
Vshared
p1255
sI1255
Vlong-term
p1256
sI1256
Vfine
p1257
sI1257
Vbeat
p1258
sI1258
Vwe\u2019ve
p1259
sI1259
Vfast
p1260
sI1260
Vgives
p1261
sI1261
Vafrican
p1262
sI1262
Vmanaging
p1263
sI1263
Vmiddle
p1264
sI1264
Vpersons
p1265
sI1265
Vinnovation
p1266
sI1266
Vindiafightscorona
p1267
sI1267
Vsuper
p1268
sI1268
Voutbreaks
p1269
sI1269
Vbuild
p1270
sI1270
Vpackage
p1271
sI1271
Vdamn
p1272
sI1272
Vconditions
p1273
sI1273
Vmobile
p1274
sI1274
Vcovid19india
p1275
sI1275
Vspace
p1276
sI1276
Vlord
p1277
sI1277
Vopinion
p1278
sI1278
Vindividuals
p1279
sI1279
Vmissed
p1280
sI1280
Vstaying
p1281
sI1281
Vnewzealand
p1282
sI1282
Vworkplace
p1283
sI1283
Vminutes
p1284
sI1284
Vjapan
p1285
sI1285
Vmaga
p1286
sI1286
Vhate
p1287
sI1287
Vdrive
p1288
sI1288
Vbank
p1289
sI1289
Vseem
p1290
sI1290
Vwh
p1291
sI1291
Vlaunch
p1292
sI1292
Vshop
p1293
sI1293
V23
p1294
sI1294
Vlose
p1295
sI1295
Vvp
p1296
sI1296
Vshown
p1297
sI1297
V3rd
p1298
sI1298
Vmumbai
p1299
sI1299
Villness
p1300
sI1300
Vsession
p1301
sI1301
Vforeign
p1302
sI1302
Vtrump\u2019s
p1303
sI1303
Vanxiety
p1304
sI1304
Vnobody
p1305
sI1305
Vdefinitely
p1306
sI1306
Vmajority
p1307
sI1307
Vexcess
p1308
sI1308
Vcrazy
p1309
sI1309
Vcamp
p1310
sI1310
Vfinds
p1311
sI1311
Vdiseases
p1312
sI1312
Vvictims
p1313
sI1313
Vcrossed
p1314
sI1314
Vprecautions
p1315
sI1315
Vviolence
p1316
sI1316
Vchart
p1317
sI1317
Vconcerned
p1318
sI1318
Vsigns
p1319
sI1319
Vmanage
p1320
sI1320
Vremains
p1321
sI1321
Vsmart
p1322
sI1322
V2021
p1323
sI1323
Vhearing
p1324
sI1324
Vscientific
p1325
sI1325
Ve.g
p1326
sI1326
Vtv
p1327
sI1327
Voffers
p1328
sI1328
Vroad
p1329
sI1329
Vtrend
p1330
sI1330
Vson
p1331
sI1331
Vlater
p1332
sI1332
Vspending
p1333
sI1333
Vbeach
p1334
sI1334
V600
p1335
sI1335
Vearlyvoting
p1336
sI1336
Vstats
p1337
sI1337
Voperations
p1338
sI1338
Vprocess
p1339
sI1339
Vlosing
p1340
sI1340
Vvietnam
p1341
sI1341
Vcovid__19
p1342
sI1342
Vadd
p1343
sI1343
Vmen
p1344
sI1344
Vbeautiful
p1345
sI1345
Vdesign
p1346
sI1346
V2019
p1347
sI1347
Vlistening
p1348
sI1348
Vconversation
p1349
sI1349
Velderly
p1350
sI1350
Vapproved
p1351
sI1351
Vextended
p1352
sI1352
Vrally
p1353
sI1353
Vstreet
p1354
sI1354
Vlockdowns
p1355
sI1355
Vcrucial
p1356
sI1356
Vawareness
p1357
sI1357
Vfunny
p1358
sI1358
Vradio
p1359
sI1359
Vhong
p1360
sI1360
Vknows
p1361
sI1361
Vchallenging
p1362
sI1362
Vvital
p1363
sI1363
Vexams
p1364
sI1364
Vextra
p1365
sI1365
Vtoday\u2019s
p1366
sI1366
Vbegan
p1367
sI1367
Vrepublican
p1368
sI1368
Vapply
p1369
sI1369
V35
p1370
sI1370
Vimprove
p1371
sI1371
Vauckland
p1372
sI1372
Vfans
p1373
sI1373
Vindigenous
p1374
sI1374
Vbjp
p1375
sI1375
Vmild
p1376
sI1376
Vrobert
p1377
sI1377
Vmayor
p1378
sI1378
Vstands
p1379
sI1379
Vaustralian
p1380
sI1380
Vwife
p1381
sI1381
Vsite
p1382
sI1382
Vnygovcuomo
p1383
sI1383
Vscams
p1384
sI1384
Vvoting
p1385
sI1385
Vphoto
p1386
sI1386
Vaka
p1387
sI1387
Vconcern
p1388
sI1388
Vpartners
p1389
sI1389
V90
p1390
sI1390
Vnecessary
p1391
sI1391
Vdont
p1392
sI1392
Vturned
p1393
sI1393
Vhospitalized
p1394
sI1394
Vkenya
p1395
sI1395
Vpushing
p1396
sI1396
Vwuhan
p1397
sI1397
Voffering
p1398
sI1398
Vthey\u2019re
p1399
sI1399
V200
p1400
sI1400
Vcapital
p1401
sI1401
Vetc
p1402
sI1402
Vpartner
p1403
sI1403
Veat
p1404
sI1404
Vactions
p1405
sI1405
Vteacher
p1406
sI1406
Vmisinformation
p1407
sI1407
Vnote
p1408
sI1408
Vspend
p1409
sI1409
Vretail
p1410
sI1410
Veither
p1411
sI1411
Vquickly
p1412
sI1412
Vhelped
p1413
sI1413
Vexecutive
p1414
sI1414
Vopportunities
p1415
sI1415
Vorders
p1416
sI1416
Vdecisions
p1417
sI1417
Vreceive
p1418
sI1418
Vrather
p1419
sI1419
Vontario
p1420
sI1420
Vwanted
p1421
sI1421
Vnytimes
p1422
sI1422
Visrael
p1423
sI1423
Vproducts
p1424
sI1424
Vbulletin
p1425
sI1425
Vgirls
p1426
sI1426
Vgreater
p1427
sI1427
Vvolunteers
p1428
sI1428
Vclaim
p1429
sI1429
Varizona
p1430
sI1430
Vcustomer
p1431
sI1431
Vohio
p1432
sI1432
Vincome
p1433
sI1433
Vboard
p1434
sI1434
Vwondering
p1435
sI1435
Vaffect
p1436
sI1436
Vne
p1437
sI1437
Veu
p1438
sI1438
Vnose
p1439
sI1439
Valthough
p1440
sI1440
Vherd
p1441
sI1441
Vtrending
p1442
sI1442
Vtune
p1443
sI1443
Vtells
p1444
sI1444
Vcorruption
p1445
sI1445
Vpassengers
p1446
sI1446
Vprofessor
p1447
sI1447
Vgames
p1448
sI1448
Vcold
p1449
sI1449
Vcapacity
p1450
sI1450
Vbaby
p1451
sI1451
Vdifference
p1452
sI1452
V1,000
p1453
sI1453
Vur
p1454
sI1454
Vunderstanding
p1455
sI1455
Vcompletely
p1456
sI1456
Vpark
p1457
sI1457
Vexample
p1458
sI1458
V100,000
p1459
sI1459
Vcelebrate
p1460
sI1460
Vfda
p1461
sI1461
Vsong
p1462
sI1462
Vglobally
p1463
sI1463
Vconspiracy
p1464
sI1464
Vfeatured
p1465
sI1465
Vpercent
p1466
sI1466
Vofficer
p1467
sI1467
Vhongkong
p1468
sI1468
Vbritish
p1469
sI1469
Venvironment
p1470
sI1470
Vcentres
p1471
sI1471
Vmexico
p1472
sI1472
Vkong
p1473
sI1473
Vraise
p1474
sI1474
Vurgent
p1475
sI1475
Vposted
p1476
sI1476
Vmedicine
p1477
sI1477
Vtruly
p1478
sI1478
Vblm
p1479
sI1479
Vwednesday
p1480
sI1480
Vuganda
p1481
sI1481
Vfinance
p1482
sI1482
Vmp
p1483
sI1483
Vstreets
p1484
sI1484
Vprovides
p1485
sI1485
Vchoose
p1486
sI1486
Vbecomes
p1487
sI1487
Vlearned
p1488
sI1488
Vcancelled
p1489
sI1489
Vglad
p1490
sI1490
Vcouple
p1491
sI1491
Vroom
p1492
sI1492
Vprice
p1493
sI1493
Vfunds
p1494
sI1494
Vlol
p1495
sI1495
V70
p1496
sI1496
Vphotography
p1497
sI1497
Vexcited
p1498
sI1498
Vround
p1499
sI1499
Vrespond
p1500
sI1500
Vjoined
p1501
sI1501
Vdonate
p1502
sI1502
Vmarkets
p1503
sI1503
Vrestaurant
p1504
sI1504
Veffort
p1505
sI1505
Vworried
p1506
sI1506
Vemployers
p1507
sI1507
Vyeah
p1508
sI1508
Vbegin
p1509
sI1509
Vdiscusses
p1510
sI1510
Vproduction
p1511
sI1511
Vhour
p1512
sI1512
Vflight
p1513
sI1513
V500
p1514
sI1514
Vspent
p1515
sI1515
Vsingh
p1516
sI1516
Vletter
p1517
sI1517
Vhcq
p1518
sI1518
Vban
p1519
sI1519
Vassam
p1520
sI1520
Vjoke
p1521
sI1521
Vcruise
p1522
sI1522
Vlie
p1523
sI1523
Vkills
p1524
sI1524
Vboost
p1525
sI1525
Vplandemic
p1526
sI1526
Vnovember
p1527
sI1527
Vwa
p1528
sI1528
Vepidemic
p1529
sI1529
Vindia\u2019s
p1530
sI1530
Vmother
p1531
sI1531
Vworker
p1532
sI1532
Vmeat
p1533
sI1533
Vrent
p1534
sI1534
Veod
p1535
sI1535
Volder
p1536
sI1536
Vdrugs
p1537
sI1537
Vstimulus
p1538
sI1538
Vclearly
p1539
sI1539
Vedition
p1540
sI1540
Vnov-3
p1541
sI1541
Vmalaysia
p1542
sI1542
Vcool
p1543
sI1543
Vuniversities
p1544
sI1544
Vgreen
p1545
sI1545
Vincludes
p1546
sI1546
Vgold
p1547
sI1547
Vpeak
p1548
sI1548
Vregion
p1549
sI1549
Vsweden
p1550
sI1550
Vdamage
p1551
sI1551
Vinsights
p1552
sI1552
Vinvestment
p1553
sI1553
Vfair
p1554
sI1554
Vblacklivesmatter
p1555
sI1555
Vassociation
p1556
sI1556
Vexposure
p1557
sI1557
Vemployee
p1558
sI1558
Vstarts
p1559
sI1559
Vrich
p1560
sI1560
Vclimate
p1561
sI1561
Vmess
p1562
sI1562
Vshops
p1563
sI1563
Vchain
p1564
sI1564
Vsuggests
p1565
sI1565
Vregional
p1566
sI1566
Vcosts
p1567
sI1567
Vobesity
p1568
sI1568
Vet
p1569
sI1569
Vrespect
p1570
sI1570
Vworked
p1571
sI1571
Vorganizations
p1572
sI1572
Vsouthafrica
p1573
sI1573
Vcompared
p1574
sI1574
Vjohn
p1575
sI1575
Vdemands
p1576
sI1576
Vprovided
p1577
sI1577
Vbbc
p1578
sI1578
Vsuccessful
p1579
sI1579
Vcough
p1580
sI1580
Vwalk
p1581
sI1581
Vresilience
p1582
sI1582
Vbasic
p1583
sI1583
Vperhaps
p1584
sI1584
Vstrategies
p1585
sI1585
Vprovince
p1586
sI1586
Vresponsibility
p1587
sI1587
Vbars
p1588
sI1588
Vmandate
p1589
sI1589
Vpriority
p1590
sI1590
Vapparently
p1591
sI1591
Vsanitizer
p1592
sI1592
Voil
p1593
sI1593
Vnurse
p1594
sI1594
Vhello
p1595
sI1595
Vcurve
p1596
sI1596
Vauthorize
p1597
sI1597
Vpowerful
p1598
sI1598
Vvalue
p1599
sI1599
Vseven
p1600
sI1600
Vlots
p1601
sI1601
Vcommunication
p1602
sI1602
Vthehill
p1603
sI1603
Vdomestic
p1604
sI1604
Vfollowed
p1605
sI1605
Vmeanwhile
p1606
sI1606
Vorganization
p1607
sI1607
Vquite
p1608
sI1608
Vlegal
p1609
sI1609
Vtried
p1610
sI1610
Veverywhere
p1611
sI1611
Vbanks
p1612
sI1612
Vexercise
p1613
sI1613
Vdiscussing
p1614
sI1614
Vactivities
p1615
sI1615
Vboris
p1616
sI1616
Vbegins
p1617
sI1617
Vknowledge
p1618
sI1618
Vsites
p1619
sI1619
Vsupposed
p1620
sI1620
Veveryday
p1621
sI1621
Vexplains
p1622
sI1622
Vstock
p1623
sI1623
Vcash
p1624
sI1624
Vbbnaija
p1625
sI1625
Varrested
p1626
sI1626
Vcolleagues
p1627
sI1627
Vreveals
p1628
sI1628
Vpresent
p1629
sI1629
Vspoke
p1630
sI1630
Vmain
p1631
sI1631
Vbriefing
p1632
sI1632
Vprayers
p1633
sI1633
Vji
p1634
sI1634
Vreasons
p1635
sI1635
Vnatural
p1636
sI1636
Vsimply
p1637
sI1637
Vfellow
p1638
sI1638
Vlakhs
p1639
sI1639
Vcharge
p1640
sI1640
V45
p1641
sI1641
Vtired
p1642
sI1642
Vissued
p1643
sI1643
Vindonesia
p1644
sI1644
Vreaches
p1645
sI1645
Vbeds
p1646
sI1646
Vmadhya
p1647
sI1647
Vthinks
p1648
sI1648
Vhighly
p1649
sI1649
Vpublichealth
p1650
sI1650
Vproper
p1651
sI1651
Vy\u2019all
p1652
sI1652
Vhours.\u000a\u000athe
p1653
sI1653
Vtouch
p1654
sI1654
Vstopped
p1655
sI1655
Vreduced
p1656
sI1656
Vplayed
p1657
sI1657
Vcybersecurity
p1658
sI1658
Vvarious
p1659
sI1659
Vtask
p1660
sI1660
Vhumans
p1661
sI1661
Vcivil
p1662
sI1662
Vfocused
p1663
sI1663
Vmo
p1664
sI1664
Vairport
p1665
sI1665
Vmovement
p1666
sI1666
Vassistance
p1667
sI1667
Vtracking
p1668
sI1668
Vtransport
p1669
sI1669
Vchanging
p1670
sI1670
Vfee
p1671
sI1671
Vstatement
p1672
sI1672
Vgoogle
p1673
sI1673
Vearth
p1674
sI1674
Vse
p1675
sI1675
Vcouncil
p1676
sI1676
Vprofessional
p1677
sI1677
Vnfl
p1678
sI1678
Vfeels
p1679
sI1679
Valcohol
p1680
sI1680
Vdeveloping
p1681
sI1681
Vcondition
p1682
sI1682
Vhrs
p1683
sI1683
Vprof
p1684
sI1684
Vdrtedros
p1685
sI1685
Vhygiene
p1686
sI1686
Vpaying
p1687
sI1687
Vpostponed
p1688
sI1688
Vappreciate
p1689
sI1689
Vcolleges
p1690
sI1690
Vdeep
p1691
sI1691
Vunless
p1692
sI1692
Vsemester
p1693
sI1693
Vmultiple
p1694
sI1694
Vexam
p1695
sI1695
Vhospitalizations
p1696
sI1696
Vtool
p1697
sI1697
Vrefuse
p1698
sI1698
Vowners
p1699
sI1699
Vconsumer
p1700
sI1700
Vmovie
p1701
sI1701
Vchannel
p1702
sI1702
Vsingapore
p1703
sI1703
Vantibody
p1704
sI1704
Vcontract
p1705
sI1705
Vlets
p1706
sI1706
Vpolicies
p1707
sI1707
Vtamilnadu
p1708
sI1708
Vlimited
p1709
sI1709
Vasia
p1710
sI1710
Vtrace
p1711
sI1711
Vwef
p1712
sI1712
Vsecretary
p1713
sI1713
Vp.m
p1714
sI1714
Vkamalaharris
p1715
sI1715
Vcauses
p1716
sI1716
Vamidst
p1717
sI1717
Vfield
p1718
sI1718
Vapart
p1719
sI1719
Vbus
p1720
sI1720
Vartist
p1721
sI1721
Vcommittee
p1722
sI1722
Vfewer
p1723
sI1723
Vokay
p1724
sI1724
Vviruses
p1725
sI1725
Vpro
p1726
sI1726
Vfit
p1727
sI1727
Vcampus
p1728
sI1728
Vconsidering
p1729
sI1729
Vdirect
p1730
sI1730
Vministers
p1731
sI1731
Vass
p1732
sI1732
Vbbcnews
p1733
sI1733
Vpanel
p1734
sI1734
Vextremely
p1735
sI1735
Vplus
p1736
sI1736
Veating
p1737
sI1737
Vtelehealth
p1738
sI1738
Vcoverings
p1739
sI1739
Vnba
p1740
sI1740
Vtotally
p1741
sI1741
Vconfirms
p1742
sI1742
Vofficially
p1743
sI1743
Vprepared
p1744
sI1744
Vantibodies
p1745
sI1745
Vcreating
p1746
sI1746
Vplatform
p1747
sI1747
Vactivity
p1748
sI1748
Vfalling
p1749
sI1749
Vwashing
p1750
sI1750
V2019ncov
p1751
sI1751
Vfr
p1752
sI1752
Vnetwork
p1753
sI1753
Vi'll
p1754
sI1754
Vmilestone
p1755
sI1755
Vcongratulations
p1756
sI1756
Var
p1757
sI1757
Vmatters
p1758
sI1758
Vwishing
p1759
sI1759
Vnations
p1760
sI1760
Vnotice
p1761
sI1761
Vchennai
p1762
sI1762
Vmouth
p1763
sI1763
Vchoice
p1764
sI1764
Vdm
p1765
sI1765
Vconstruction
p1766
sI1766
Vexperiencing
p1767
sI1767
Vsees
p1768
sI1768
Vfinding
p1769
sI1769
Vdecline
p1770
sI1770
Vscared
p1771
sI1771
Vteaching
p1772
sI1772
Vgovrondesantis
p1773
sI1773
Vbet
p1774
sI1774
Varen\u2019t
p1775
sI1775
Vusps
p1776
sI1776
Vshift
p1777
sI1777
Vserve
p1778
sI1778
Vsadly
p1779
sI1779
Vcaught
p1780
sI1780
Vpharma
p1781
sI1781
Vactual
p1782
sI1782
Veast
p1783
sI1783
Vcrore
p1784
sI1784
Vprotocols
p1785
sI1785
Vemployment
p1786
sI1786
Vbrexit
p1787
sI1787
Vyou\u2019ve
p1788
sI1788
Vmention
p1789
sI1789
Vhandle
p1790
sI1790
Voverall
p1791
sI1791
Vfather
p1792
sI1792
Vkeeps
p1793
sI1793
Vhumanity
p1794
sI1794
Vcolor
p1795
sI1795
Vfraud
p1796
sI1796
Vresume
p1797
sI1797
Vkerala
p1798
sI1798
V1000
p1799
sI1799
Vhighlights
p1800
sI1800
Vscam
p1801
sI1801
Vunprecedented
p1802
sI1802
Vgdp
p1803
sI1803
Vclimatechange
p1804
sI1804
Vmom
p1805
sI1805
Vquarter
p1806
sI1806
Vfigure
p1807
sI1807
Vshutdown
p1808
sI1808
Vrevealed
p1809
sI1809
Vresource
p1810
sI1810
Vbecame
p1811
sI1811
Vpoverty
p1812
sI1812
Vcounties
p1813
sI1813
Vimmediately
p1814
sI1814
Vprison
p1815
sI1815
Vsleep
p1816
sI1816
Vprofessionals
p1817
sI1817
Vsituations
p1818
sI1818
Vattack
p1819
sI1819
Vaware
p1820
sI1820
Vtoronto
p1821
sI1821
Vtha
p1822
sI1822
Vbroke
p1823
sI1823
Vri
p1824
sI1824
Vstraight
p1825
sI1825
Vbecoming
p1826
sI1826
Vamazon
p1827
sI1827
Vconsequences
p1828
sI1828
Vcorrect
p1829
sI1829
Vparticularly
p1830
sI1830
Vjustice
p1831
sI1831
Vfoxnews
p1832
sI1832
Vprotesters
p1833
sI1833
Vaffecting
p1834
sI1834
Vdebt
p1835
sI1835
Vdelivered
p1836
sI1836
Vpeace
p1837
sI1837
Vform
p1838
sI1838
Vdrrpnishank
p1839
sI1839
Vdistricts
p1840
sI1840
Vtherapy
p1841
sI1841
Vmap
p1842
sI1842
Vmatthancock
p1843
sI1843
Vrule
p1844
sI1844
Vinstitute
p1845
sI1845
Vsuspected
p1846
sI1846
Vperspective
p1847
sI1847
Vmilitary
p1848
sI1848
Vinterested
p1849
sI1849
Vshame
p1850
sI1850
Vwestern
p1851
sI1851
Veuropean
p1852
sI1852
Vhyderabad
p1853
sI1853
Vartists
p1854
sI1854
Vpandemics
p1855
sI1855
Vdecide
p1856
sI1856
Vstorm
p1857
sI1857
Vbacktoschool
p1858
sI1858
Vupon
p1859
sI1859
Vcontinuing
p1860
sI1860
Vdepression
p1861
sI1861
Vcluster
p1862
sI1862
Vbrand
p1863
sI1863
Vaffairs
p1864
sI1864
Vemail
p1865
sI1865
Vcas
p1866
sI1866
Vholding
p1867
sI1867
Vram
p1868
sI1868
Vmissing
p1869
sI1869
Vsetting
p1870
sI1870
Vcumulative
p1871
sI1871
Vcoverage
p1872
sI1872
Vgates
p1873
sI1873
Vpo
p1874
sI1874
Vgatherings
p1875
sI1875
Vbrain
p1876
sI1876
Vputs
p1877
sI1877
Vprograms
p1878
sI1878
Vprotective
p1879
sI1879
Vshah
p1880
sI1880
Vunemployed
p1881
sI1881
Vrep
p1882
sI1882
Vinitiative
p1883
sI1883
Videas
p1884
sI1884
Vcertain
p1885
sI1885
Vmail
p1886
sI1886
Vpressure
p1887
sI1887
Vunique
p1888
sI1888
Vborders
p1889
sI1889
Vrs
p1890
sI1890
Vdog
p1891
sI1891
Vaffordable
p1892
sI1892
Vda
p1893
sI1893
Vwinning
p1894
sI1894
Vfix
p1895
sI1895
Vtraffic
p1896
sI1896
Vskynews
p1897
sI1897
Vpicture
p1898
sI1898
Vreducing
p1899
sI1899
Vdedicated
p1900
sI1900
Vcontinued
p1901
sI1901
Vstation
p1902
sI1902
Velections
p1903
sI1903
Vwearadamnmask
p1904
sI1904
Vspot
p1905
sI1905
Vcon
p1906
sI1906
Vsummary
p1907
sI1907
Vprices
p1908
sI1908
Vinvolved
p1909
sI1909
Vrequire
p1910
sI1910
Vte
p1911
sI1911
Vrespiratory
p1912
sI1912
Vnsw
p1913
sI1913
Vtools
p1914
sI1914
Vthroughout
p1915
sI1915
Vwo
p1916
sI1916
Vfitness
p1917
sI1917
Vprojects
p1918
sI1918
Vannual
p1919
sI1919
Vgolf
p1920
sI1920
Vcares
p1921
sI1921
Vex
p1922
sI1922
Vfeet
p1923
sI1923
Venter
p1924
sI1924
Vexcept
p1925
sI1925
Vbenefit
p1926
sI1926
Vin-person
p1927
sI1927
Vimported
p1928
sI1928
Vprior
p1929
sI1929
Vganjam
p1930
sI1930
Vdi
p1931
sI1931
Vinsight
p1932
sI1932
Vtreating
p1933
sI1933
Vinstagram
p1934
sI1934
Vleads
p1935
sI1935
Vblue
p1936
sI1936
Vdelay
p1937
sI1937
Vpoints
p1938
sI1938
Vcontracted
p1939
sI1939
Vhost
p1940
sI1940
Vcanadian
p1941
sI1941
Vagency
p1942
sI1942
Vdiagnosed
p1943
sI1943
Vlying
p1944
sI1944
Vappears
p1945
sI1945
V300
p1946
sI1946
Vbillgates
p1947
sI1947
Vurge
p1948
sI1948
Vpop
p1949
sI1949
Vland
p1950
sI1950
Vidiots
p1951
sI1951
Vvideos
p1952
sI1952
Vpe
p1953
sI1953
Vtarget
p1954
sI1954
Vwhatever
p1955
sI1955
Vtweets
p1956
sI1956
Vgrant
p1957
sI1957
Vtemporary
p1958
sI1958
Vexplore
p1959
sI1959
Vconduct
p1960
sI1960
Vpoll
p1961
sI1961
Vcommercial
p1962
sI1962
Vincreases
p1963
sI1963
Vhits
p1964
sI1964
Vannounce
p1965
sI1965
Vuseful
p1966
sI1966
Vminute
p1967
sI1967
Vsimilar
p1968
sI1968
Vboy
p1969
sI1969
Vhurt
p1970
sI1970
Vtackle
p1971
sI1971
Vcreative
p1972
sI1972
Vrose
p1973
sI1973
Vhiv
p1974
sI1974
Vgerman
p1975
sI1975
Vtr
p1976
sI1976
Vgender
p1977
sI1977
Vhall
p1978
sI1978
Vcredit
p1979
sI1979
Vregular
p1980
sI1980
Vcloth
p1981
sI1981
Vsell
p1982
sI1982
Vscotland
p1983
sI1983
Vfantastic
p1984
sI1984
Vvladimir
p1985
sI1985
Vweather
p1986
sI1986
Vi'd
p1987
sI1987
Viran
p1988
sI1988
Vwonderful
p1989
sI1989
Vpersonnel
p1990
sI1990
Vground
p1991
sI1991
Vbrings
p1992
sI1992
Vganesh
p1993
sI1993
Vberlin
p1994
sI1994
Vallowing
p1995
sI1995
Vkashmir
p1996
sI1996
Vliterally
p1997
sI1997
Veverybody
p1998
sI1998
Vbirthday
p1999
sI1999
Vsaving
p2000
s.